
bomb:     file format elf32-i386


Disassembly of section .init:

080486f4 <_init>:
 80486f4:	53                   	push   %ebx
 80486f5:	83 ec 08             	sub    $0x8,%esp
 80486f8:	e8 13 02 00 00       	call   8048910 <__x86.get_pc_thunk.bx>
 80486fd:	81 c3 03 39 00 00    	add    $0x3903,%ebx
 8048703:	8b 83 fc ff ff ff    	mov    -0x4(%ebx),%eax
 8048709:	85 c0                	test   %eax,%eax
 804870b:	74 05                	je     8048712 <_init+0x1e>
 804870d:	e8 be 01 00 00       	call   80488d0 <__sprintf_chk@plt+0x10>
 8048712:	83 c4 08             	add    $0x8,%esp
 8048715:	5b                   	pop    %ebx
 8048716:	c3                   	ret    

Disassembly of section .plt:

08048720 <read@plt-0x10>:
 8048720:	ff 35 04 c0 04 08    	pushl  0x804c004
 8048726:	ff 25 08 c0 04 08    	jmp    *0x804c008
 804872c:	00 00                	add    %al,(%eax)
	...

08048730 <read@plt>:
 8048730:	ff 25 0c c0 04 08    	jmp    *0x804c00c
 8048736:	68 00 00 00 00       	push   $0x0
 804873b:	e9 e0 ff ff ff       	jmp    8048720 <_init+0x2c>

08048740 <fflush@plt>:
 8048740:	ff 25 10 c0 04 08    	jmp    *0x804c010
 8048746:	68 08 00 00 00       	push   $0x8
 804874b:	e9 d0 ff ff ff       	jmp    8048720 <_init+0x2c>

08048750 <fgets@plt>:
 8048750:	ff 25 14 c0 04 08    	jmp    *0x804c014
 8048756:	68 10 00 00 00       	push   $0x10
 804875b:	e9 c0 ff ff ff       	jmp    8048720 <_init+0x2c>

08048760 <signal@plt>:
 8048760:	ff 25 18 c0 04 08    	jmp    *0x804c018
 8048766:	68 18 00 00 00       	push   $0x18
 804876b:	e9 b0 ff ff ff       	jmp    8048720 <_init+0x2c>

08048770 <sleep@plt>:
 8048770:	ff 25 1c c0 04 08    	jmp    *0x804c01c
 8048776:	68 20 00 00 00       	push   $0x20
 804877b:	e9 a0 ff ff ff       	jmp    8048720 <_init+0x2c>

08048780 <alarm@plt>:
 8048780:	ff 25 20 c0 04 08    	jmp    *0x804c020
 8048786:	68 28 00 00 00       	push   $0x28
 804878b:	e9 90 ff ff ff       	jmp    8048720 <_init+0x2c>

08048790 <__stack_chk_fail@plt>:
 8048790:	ff 25 24 c0 04 08    	jmp    *0x804c024
 8048796:	68 30 00 00 00       	push   $0x30
 804879b:	e9 80 ff ff ff       	jmp    8048720 <_init+0x2c>

080487a0 <strcpy@plt>:
 80487a0:	ff 25 28 c0 04 08    	jmp    *0x804c028
 80487a6:	68 38 00 00 00       	push   $0x38
 80487ab:	e9 70 ff ff ff       	jmp    8048720 <_init+0x2c>

080487b0 <getenv@plt>:
 80487b0:	ff 25 2c c0 04 08    	jmp    *0x804c02c
 80487b6:	68 40 00 00 00       	push   $0x40
 80487bb:	e9 60 ff ff ff       	jmp    8048720 <_init+0x2c>

080487c0 <puts@plt>:
 80487c0:	ff 25 30 c0 04 08    	jmp    *0x804c030
 80487c6:	68 48 00 00 00       	push   $0x48
 80487cb:	e9 50 ff ff ff       	jmp    8048720 <_init+0x2c>

080487d0 <__memmove_chk@plt>:
 80487d0:	ff 25 34 c0 04 08    	jmp    *0x804c034
 80487d6:	68 50 00 00 00       	push   $0x50
 80487db:	e9 40 ff ff ff       	jmp    8048720 <_init+0x2c>

080487e0 <exit@plt>:
 80487e0:	ff 25 38 c0 04 08    	jmp    *0x804c038
 80487e6:	68 58 00 00 00       	push   $0x58
 80487eb:	e9 30 ff ff ff       	jmp    8048720 <_init+0x2c>

080487f0 <__libc_start_main@plt>:
 80487f0:	ff 25 3c c0 04 08    	jmp    *0x804c03c
 80487f6:	68 60 00 00 00       	push   $0x60
 80487fb:	e9 20 ff ff ff       	jmp    8048720 <_init+0x2c>

08048800 <write@plt>:
 8048800:	ff 25 40 c0 04 08    	jmp    *0x804c040
 8048806:	68 68 00 00 00       	push   $0x68
 804880b:	e9 10 ff ff ff       	jmp    8048720 <_init+0x2c>

08048810 <__isoc99_sscanf@plt>:
 8048810:	ff 25 44 c0 04 08    	jmp    *0x804c044
 8048816:	68 70 00 00 00       	push   $0x70
 804881b:	e9 00 ff ff ff       	jmp    8048720 <_init+0x2c>

08048820 <fopen@plt>:
 8048820:	ff 25 48 c0 04 08    	jmp    *0x804c048
 8048826:	68 78 00 00 00       	push   $0x78
 804882b:	e9 f0 fe ff ff       	jmp    8048720 <_init+0x2c>

08048830 <__errno_location@plt>:
 8048830:	ff 25 4c c0 04 08    	jmp    *0x804c04c
 8048836:	68 80 00 00 00       	push   $0x80
 804883b:	e9 e0 fe ff ff       	jmp    8048720 <_init+0x2c>

08048840 <__printf_chk@plt>:
 8048840:	ff 25 50 c0 04 08    	jmp    *0x804c050
 8048846:	68 88 00 00 00       	push   $0x88
 804884b:	e9 d0 fe ff ff       	jmp    8048720 <_init+0x2c>

08048850 <socket@plt>:
 8048850:	ff 25 54 c0 04 08    	jmp    *0x804c054
 8048856:	68 90 00 00 00       	push   $0x90
 804885b:	e9 c0 fe ff ff       	jmp    8048720 <_init+0x2c>

08048860 <__fprintf_chk@plt>:
 8048860:	ff 25 58 c0 04 08    	jmp    *0x804c058
 8048866:	68 98 00 00 00       	push   $0x98
 804886b:	e9 b0 fe ff ff       	jmp    8048720 <_init+0x2c>

08048870 <gethostbyname@plt>:
 8048870:	ff 25 5c c0 04 08    	jmp    *0x804c05c
 8048876:	68 a0 00 00 00       	push   $0xa0
 804887b:	e9 a0 fe ff ff       	jmp    8048720 <_init+0x2c>

08048880 <strtol@plt>:
 8048880:	ff 25 60 c0 04 08    	jmp    *0x804c060
 8048886:	68 a8 00 00 00       	push   $0xa8
 804888b:	e9 90 fe ff ff       	jmp    8048720 <_init+0x2c>

08048890 <connect@plt>:
 8048890:	ff 25 64 c0 04 08    	jmp    *0x804c064
 8048896:	68 b0 00 00 00       	push   $0xb0
 804889b:	e9 80 fe ff ff       	jmp    8048720 <_init+0x2c>

080488a0 <close@plt>:
 80488a0:	ff 25 68 c0 04 08    	jmp    *0x804c068
 80488a6:	68 b8 00 00 00       	push   $0xb8
 80488ab:	e9 70 fe ff ff       	jmp    8048720 <_init+0x2c>

080488b0 <__ctype_b_loc@plt>:
 80488b0:	ff 25 6c c0 04 08    	jmp    *0x804c06c
 80488b6:	68 c0 00 00 00       	push   $0xc0
 80488bb:	e9 60 fe ff ff       	jmp    8048720 <_init+0x2c>

080488c0 <__sprintf_chk@plt>:
 80488c0:	ff 25 70 c0 04 08    	jmp    *0x804c070
 80488c6:	68 c8 00 00 00       	push   $0xc8
 80488cb:	e9 50 fe ff ff       	jmp    8048720 <_init+0x2c>

Disassembly of section .plt.got:

080488d0 <.plt.got>:
 80488d0:	ff 25 fc bf 04 08    	jmp    *0x804bffc
 80488d6:	66 90                	xchg   %ax,%ax

Disassembly of section .text:

080488e0 <_start>:
 80488e0:	31 ed                	xor    %ebp,%ebp
 80488e2:	5e                   	pop    %esi
 80488e3:	89 e1                	mov    %esp,%ecx
 80488e5:	83 e4 f0             	and    $0xfffffff0,%esp
 80488e8:	50                   	push   %eax
 80488e9:	54                   	push   %esp
 80488ea:	52                   	push   %edx
 80488eb:	68 b0 9e 04 08       	push   $0x8049eb0
 80488f0:	68 50 9e 04 08       	push   $0x8049e50
 80488f5:	51                   	push   %ecx
 80488f6:	56                   	push   %esi
 80488f7:	68 db 89 04 08       	push   $0x80489db
 80488fc:	e8 ef fe ff ff       	call   80487f0 <__libc_start_main@plt>
 8048901:	f4                   	hlt    
 8048902:	66 90                	xchg   %ax,%ax
 8048904:	66 90                	xchg   %ax,%ax
 8048906:	66 90                	xchg   %ax,%ax
 8048908:	66 90                	xchg   %ax,%ax
 804890a:	66 90                	xchg   %ax,%ax
 804890c:	66 90                	xchg   %ax,%ax
 804890e:	66 90                	xchg   %ax,%ax

08048910 <__x86.get_pc_thunk.bx>:
 8048910:	8b 1c 24             	mov    (%esp),%ebx
 8048913:	c3                   	ret    
 8048914:	66 90                	xchg   %ax,%ax
 8048916:	66 90                	xchg   %ax,%ax
 8048918:	66 90                	xchg   %ax,%ax
 804891a:	66 90                	xchg   %ax,%ax
 804891c:	66 90                	xchg   %ax,%ax
 804891e:	66 90                	xchg   %ax,%ax

08048920 <deregister_tm_clones>:
 8048920:	b8 a3 c3 04 08       	mov    $0x804c3a3,%eax
 8048925:	2d a0 c3 04 08       	sub    $0x804c3a0,%eax
 804892a:	83 f8 06             	cmp    $0x6,%eax
 804892d:	76 1a                	jbe    8048949 <deregister_tm_clones+0x29>
 804892f:	b8 00 00 00 00       	mov    $0x0,%eax
 8048934:	85 c0                	test   %eax,%eax
 8048936:	74 11                	je     8048949 <deregister_tm_clones+0x29>
 8048938:	55                   	push   %ebp
 8048939:	89 e5                	mov    %esp,%ebp
 804893b:	83 ec 14             	sub    $0x14,%esp
 804893e:	68 a0 c3 04 08       	push   $0x804c3a0
 8048943:	ff d0                	call   *%eax
 8048945:	83 c4 10             	add    $0x10,%esp
 8048948:	c9                   	leave  
 8048949:	f3 c3                	repz ret 
 804894b:	90                   	nop
 804894c:	8d 74 26 00          	lea    0x0(%esi,%eiz,1),%esi

08048950 <register_tm_clones>:
 8048950:	b8 a0 c3 04 08       	mov    $0x804c3a0,%eax
 8048955:	2d a0 c3 04 08       	sub    $0x804c3a0,%eax
 804895a:	c1 f8 02             	sar    $0x2,%eax
 804895d:	89 c2                	mov    %eax,%edx
 804895f:	c1 ea 1f             	shr    $0x1f,%edx
 8048962:	01 d0                	add    %edx,%eax
 8048964:	d1 f8                	sar    %eax
 8048966:	74 1b                	je     8048983 <register_tm_clones+0x33>
 8048968:	ba 00 00 00 00       	mov    $0x0,%edx
 804896d:	85 d2                	test   %edx,%edx
 804896f:	74 12                	je     8048983 <register_tm_clones+0x33>
 8048971:	55                   	push   %ebp
 8048972:	89 e5                	mov    %esp,%ebp
 8048974:	83 ec 10             	sub    $0x10,%esp
 8048977:	50                   	push   %eax
 8048978:	68 a0 c3 04 08       	push   $0x804c3a0
 804897d:	ff d2                	call   *%edx
 804897f:	83 c4 10             	add    $0x10,%esp
 8048982:	c9                   	leave  
 8048983:	f3 c3                	repz ret 
 8048985:	8d 74 26 00          	lea    0x0(%esi,%eiz,1),%esi
 8048989:	8d bc 27 00 00 00 00 	lea    0x0(%edi,%eiz,1),%edi

08048990 <__do_global_dtors_aux>:
 8048990:	80 3d c8 c3 04 08 00 	cmpb   $0x0,0x804c3c8
 8048997:	75 13                	jne    80489ac <__do_global_dtors_aux+0x1c>
 8048999:	55                   	push   %ebp
 804899a:	89 e5                	mov    %esp,%ebp
 804899c:	83 ec 08             	sub    $0x8,%esp
 804899f:	e8 7c ff ff ff       	call   8048920 <deregister_tm_clones>
 80489a4:	c6 05 c8 c3 04 08 01 	movb   $0x1,0x804c3c8
 80489ab:	c9                   	leave  
 80489ac:	f3 c3                	repz ret 
 80489ae:	66 90                	xchg   %ax,%ax

080489b0 <frame_dummy>:
 80489b0:	b8 10 bf 04 08       	mov    $0x804bf10,%eax
 80489b5:	8b 10                	mov    (%eax),%edx
 80489b7:	85 d2                	test   %edx,%edx
 80489b9:	75 05                	jne    80489c0 <frame_dummy+0x10>
 80489bb:	eb 93                	jmp    8048950 <register_tm_clones>
 80489bd:	8d 76 00             	lea    0x0(%esi),%esi
 80489c0:	ba 00 00 00 00       	mov    $0x0,%edx
 80489c5:	85 d2                	test   %edx,%edx
 80489c7:	74 f2                	je     80489bb <frame_dummy+0xb>
 80489c9:	55                   	push   %ebp
 80489ca:	89 e5                	mov    %esp,%ebp
 80489cc:	83 ec 14             	sub    $0x14,%esp
 80489cf:	50                   	push   %eax
 80489d0:	ff d2                	call   *%edx
 80489d2:	83 c4 10             	add    $0x10,%esp
 80489d5:	c9                   	leave  
 80489d6:	e9 75 ff ff ff       	jmp    8048950 <register_tm_clones>

080489db <main>:
 80489db:	8d 4c 24 04          	lea    0x4(%esp),%ecx
 80489df:	83 e4 f0             	and    $0xfffffff0,%esp
 80489e2:	ff 71 fc             	pushl  -0x4(%ecx)
 80489e5:	55                   	push   %ebp
 80489e6:	89 e5                	mov    %esp,%ebp
 80489e8:	53                   	push   %ebx
 80489e9:	51                   	push   %ecx
 80489ea:	8b 01                	mov    (%ecx),%eax
 80489ec:	8b 59 04             	mov    0x4(%ecx),%ebx
 80489ef:	83 f8 01             	cmp    $0x1,%eax
 80489f2:	0f 84 01 01 00 00    	je     8048af9 <main+0x11e>
 80489f8:	83 f8 02             	cmp    $0x2,%eax
 80489fb:	0f 85 24 01 00 00    	jne    8048b25 <main+0x14a>
 8048a01:	83 ec 08             	sub    $0x8,%esp
 8048a04:	68 e8 9e 04 08       	push   $0x8049ee8
 8048a09:	ff 73 04             	pushl  0x4(%ebx)
 8048a0c:	e8 0f fe ff ff       	call   8048820 <fopen@plt>
 8048a11:	a3 d0 c3 04 08       	mov    %eax,0x804c3d0
 8048a16:	83 c4 10             	add    $0x10,%esp
 8048a19:	85 c0                	test   %eax,%eax
 8048a1b:	0f 84 e7 00 00 00    	je     8048b08 <main+0x12d>
 8048a21:	e8 51 06 00 00       	call   8049077 <initialize_bomb>
 8048a26:	83 ec 0c             	sub    $0xc,%esp
 8048a29:	68 6c 9f 04 08       	push   $0x8049f6c
 8048a2e:	e8 8d fd ff ff       	call   80487c0 <puts@plt>
 8048a33:	c7 04 24 a8 9f 04 08 	movl   $0x8049fa8,(%esp)
 8048a3a:	e8 81 fd ff ff       	call   80487c0 <puts@plt>
 8048a3f:	e8 23 07 00 00       	call   8049167 <read_line>
 8048a44:	89 04 24             	mov    %eax,(%esp)
 8048a47:	e8 f6 00 00 00       	call   8048b42 <phase_1>
 8048a4c:	e8 15 08 00 00       	call   8049266 <phase_defused>
 8048a51:	c7 04 24 d4 9f 04 08 	movl   $0x8049fd4,(%esp)
 8048a58:	e8 63 fd ff ff       	call   80487c0 <puts@plt>
 8048a5d:	e8 05 07 00 00       	call   8049167 <read_line>
 8048a62:	89 04 24             	mov    %eax,(%esp)
 8048a65:	e8 fb 00 00 00       	call   8048b65 <phase_2>
 8048a6a:	e8 f7 07 00 00       	call   8049266 <phase_defused>
 8048a6f:	c7 04 24 21 9f 04 08 	movl   $0x8049f21,(%esp)
 8048a76:	e8 45 fd ff ff       	call   80487c0 <puts@plt>
 8048a7b:	e8 e7 06 00 00       	call   8049167 <read_line>
 8048a80:	89 04 24             	mov    %eax,(%esp)
 8048a83:	e8 4c 01 00 00       	call   8048bd4 <phase_3>
 8048a88:	e8 d9 07 00 00       	call   8049266 <phase_defused>
 8048a8d:	c7 04 24 3f 9f 04 08 	movl   $0x8049f3f,(%esp)
 8048a94:	e8 27 fd ff ff       	call   80487c0 <puts@plt>
 8048a99:	e8 c9 06 00 00       	call   8049167 <read_line>
 8048a9e:	89 04 24             	mov    %eax,(%esp)
 8048aa1:	e8 61 02 00 00       	call   8048d07 <phase_4>
 8048aa6:	e8 bb 07 00 00       	call   8049266 <phase_defused>
 8048aab:	c7 04 24 00 a0 04 08 	movl   $0x804a000,(%esp)
 8048ab2:	e8 09 fd ff ff       	call   80487c0 <puts@plt>
 8048ab7:	e8 ab 06 00 00       	call   8049167 <read_line>
 8048abc:	89 04 24             	mov    %eax,(%esp)
 8048abf:	e8 bc 02 00 00       	call   8048d80 <phase_5>
 8048ac4:	e8 9d 07 00 00       	call   8049266 <phase_defused>
 8048ac9:	c7 04 24 4e 9f 04 08 	movl   $0x8049f4e,(%esp)
 8048ad0:	e8 eb fc ff ff       	call   80487c0 <puts@plt>
 8048ad5:	e8 8d 06 00 00       	call   8049167 <read_line>
 8048ada:	89 04 24             	mov    %eax,(%esp)
 8048add:	e8 e6 02 00 00       	call   8048dc8 <phase_6>
 8048ae2:	e8 7f 07 00 00       	call   8049266 <phase_defused>
 8048ae7:	83 c4 10             	add    $0x10,%esp
 8048aea:	b8 00 00 00 00       	mov    $0x0,%eax
 8048aef:	8d 65 f8             	lea    -0x8(%ebp),%esp
 8048af2:	59                   	pop    %ecx
 8048af3:	5b                   	pop    %ebx
 8048af4:	5d                   	pop    %ebp
 8048af5:	8d 61 fc             	lea    -0x4(%ecx),%esp
 8048af8:	c3                   	ret    
 8048af9:	a1 c0 c3 04 08       	mov    0x804c3c0,%eax
 8048afe:	a3 d0 c3 04 08       	mov    %eax,0x804c3d0
 8048b03:	e9 19 ff ff ff       	jmp    8048a21 <main+0x46>
 8048b08:	ff 73 04             	pushl  0x4(%ebx)
 8048b0b:	ff 33                	pushl  (%ebx)
 8048b0d:	68 ea 9e 04 08       	push   $0x8049eea
 8048b12:	6a 01                	push   $0x1
 8048b14:	e8 27 fd ff ff       	call   8048840 <__printf_chk@plt>
 8048b19:	c7 04 24 08 00 00 00 	movl   $0x8,(%esp)
 8048b20:	e8 bb fc ff ff       	call   80487e0 <exit@plt>
 8048b25:	83 ec 04             	sub    $0x4,%esp
 8048b28:	ff 33                	pushl  (%ebx)
 8048b2a:	68 07 9f 04 08       	push   $0x8049f07
 8048b2f:	6a 01                	push   $0x1
 8048b31:	e8 0a fd ff ff       	call   8048840 <__printf_chk@plt>
 8048b36:	c7 04 24 08 00 00 00 	movl   $0x8,(%esp)
 8048b3d:	e8 9e fc ff ff       	call   80487e0 <exit@plt>

08048b42 <phase_1>:
 8048b42:	83 ec 14             	sub    $0x14,%esp
 8048b45:	68 24 a0 04 08       	push   $0x804a024
 8048b4a:	ff 74 24 1c          	pushl  0x1c(%esp)
 8048b4e:	e8 bf 04 00 00       	call   8049012 <strings_not_equal>
 8048b53:	83 c4 10             	add    $0x10,%esp
 8048b56:	85 c0                	test   %eax,%eax
 8048b58:	75 04                	jne    8048b5e <phase_1+0x1c>
 8048b5a:	83 c4 0c             	add    $0xc,%esp
 8048b5d:	c3                   	ret    
 8048b5e:	e8 a4 05 00 00       	call   8049107 <explode_bomb>
 8048b63:	eb f5                	jmp    8048b5a <phase_1+0x18>

08048b65 <phase_2>:
 8048b65:	56                   	push   %esi
 8048b66:	53                   	push   %ebx
 8048b67:	83 ec 2c             	sub    $0x2c,%esp
 8048b6a:	65 a1 14 00 00 00    	mov    %gs:0x14,%eax
 8048b70:	89 44 24 24          	mov    %eax,0x24(%esp)
 8048b74:	31 c0                	xor    %eax,%eax
 8048b76:	8d 44 24 0c          	lea    0xc(%esp),%eax
 8048b7a:	50                   	push   %eax
 8048b7b:	ff 74 24 3c          	pushl  0x3c(%esp)
 8048b7f:	e8 a8 05 00 00       	call   804912c <read_six_numbers>
 8048b84:	83 c4 10             	add    $0x10,%esp
 8048b87:	83 7c 24 04 00       	cmpl   $0x0,0x4(%esp)
 8048b8c:	75 07                	jne    8048b95 <phase_2+0x30>
 8048b8e:	83 7c 24 08 01       	cmpl   $0x1,0x8(%esp)
 8048b93:	74 05                	je     8048b9a <phase_2+0x35>
 8048b95:	e8 6d 05 00 00       	call   8049107 <explode_bomb>
 8048b9a:	8d 5c 24 04          	lea    0x4(%esp),%ebx
 8048b9e:	8d 74 24 14          	lea    0x14(%esp),%esi
 8048ba2:	eb 07                	jmp    8048bab <phase_2+0x46>
 8048ba4:	83 c3 04             	add    $0x4,%ebx
 8048ba7:	39 f3                	cmp    %esi,%ebx
 8048ba9:	74 11                	je     8048bbc <phase_2+0x57>
 8048bab:	8b 43 04             	mov    0x4(%ebx),%eax
 8048bae:	03 03                	add    (%ebx),%eax
 8048bb0:	39 43 08             	cmp    %eax,0x8(%ebx)
 8048bb3:	74 ef                	je     8048ba4 <phase_2+0x3f>
 8048bb5:	e8 4d 05 00 00       	call   8049107 <explode_bomb>
 8048bba:	eb e8                	jmp    8048ba4 <phase_2+0x3f>
 8048bbc:	8b 44 24 1c          	mov    0x1c(%esp),%eax
 8048bc0:	65 33 05 14 00 00 00 	xor    %gs:0x14,%eax
 8048bc7:	75 06                	jne    8048bcf <phase_2+0x6a>
 8048bc9:	83 c4 24             	add    $0x24,%esp
 8048bcc:	5b                   	pop    %ebx
 8048bcd:	5e                   	pop    %esi
 8048bce:	c3                   	ret    
 8048bcf:	e8 bc fb ff ff       	call   8048790 <__stack_chk_fail@plt>

08048bd4 <phase_3>:
 8048bd4:	83 ec 1c             	sub    $0x1c,%esp
 8048bd7:	65 a1 14 00 00 00    	mov    %gs:0x14,%eax
 8048bdd:	89 44 24 0c          	mov    %eax,0xc(%esp)
 8048be1:	31 c0                	xor    %eax,%eax
 8048be3:	8d 44 24 08          	lea    0x8(%esp),%eax
 8048be7:	50                   	push   %eax
 8048be8:	8d 44 24 08          	lea    0x8(%esp),%eax
 8048bec:	50                   	push   %eax
 8048bed:	68 ef a1 04 08       	push   $0x804a1ef
 8048bf2:	ff 74 24 2c          	pushl  0x2c(%esp)
 8048bf6:	e8 15 fc ff ff       	call   8048810 <__isoc99_sscanf@plt>
 8048bfb:	83 c4 10             	add    $0x10,%esp
 8048bfe:	83 f8 01             	cmp    $0x1,%eax
 8048c01:	7e 16                	jle    8048c19 <phase_3+0x45>
 8048c03:	83 7c 24 04 07       	cmpl   $0x7,0x4(%esp)
 8048c08:	0f 87 8e 00 00 00    	ja     8048c9c <phase_3+0xc8>
 8048c0e:	8b 44 24 04          	mov    0x4(%esp),%eax
 8048c12:	ff 24 85 80 a0 04 08 	jmp    *0x804a080(,%eax,4)
 8048c19:	e8 e9 04 00 00       	call   8049107 <explode_bomb>
 8048c1e:	eb e3                	jmp    8048c03 <phase_3+0x2f>
 8048c20:	b8 6c 03 00 00       	mov    $0x36c,%eax
 8048c25:	eb 05                	jmp    8048c2c <phase_3+0x58>
 8048c27:	b8 00 00 00 00       	mov    $0x0,%eax
 8048c2c:	2d 82 02 00 00       	sub    $0x282,%eax
 8048c31:	05 bd 00 00 00       	add    $0xbd,%eax
 8048c36:	2d c4 01 00 00       	sub    $0x1c4,%eax
 8048c3b:	05 c4 01 00 00       	add    $0x1c4,%eax
 8048c40:	2d c4 01 00 00       	sub    $0x1c4,%eax
 8048c45:	05 c4 01 00 00       	add    $0x1c4,%eax
 8048c4a:	2d c4 01 00 00       	sub    $0x1c4,%eax
 8048c4f:	83 7c 24 04 05       	cmpl   $0x5,0x4(%esp)
 8048c54:	7f 06                	jg     8048c5c <phase_3+0x88>
 8048c56:	3b 44 24 08          	cmp    0x8(%esp),%eax
 8048c5a:	74 05                	je     8048c61 <phase_3+0x8d>
 8048c5c:	e8 a6 04 00 00       	call   8049107 <explode_bomb>
 8048c61:	8b 44 24 0c          	mov    0xc(%esp),%eax
 8048c65:	65 33 05 14 00 00 00 	xor    %gs:0x14,%eax
 8048c6c:	75 3a                	jne    8048ca8 <phase_3+0xd4>
 8048c6e:	83 c4 1c             	add    $0x1c,%esp
 8048c71:	c3                   	ret    
 8048c72:	b8 00 00 00 00       	mov    $0x0,%eax
 8048c77:	eb b8                	jmp    8048c31 <phase_3+0x5d>
 8048c79:	b8 00 00 00 00       	mov    $0x0,%eax
 8048c7e:	eb b6                	jmp    8048c36 <phase_3+0x62>
 8048c80:	b8 00 00 00 00       	mov    $0x0,%eax
 8048c85:	eb b4                	jmp    8048c3b <phase_3+0x67>
 8048c87:	b8 00 00 00 00       	mov    $0x0,%eax
 8048c8c:	eb b2                	jmp    8048c40 <phase_3+0x6c>
 8048c8e:	b8 00 00 00 00       	mov    $0x0,%eax
 8048c93:	eb b0                	jmp    8048c45 <phase_3+0x71>
 8048c95:	b8 00 00 00 00       	mov    $0x0,%eax
 8048c9a:	eb ae                	jmp    8048c4a <phase_3+0x76>
 8048c9c:	e8 66 04 00 00       	call   8049107 <explode_bomb>
 8048ca1:	b8 00 00 00 00       	mov    $0x0,%eax
 8048ca6:	eb a7                	jmp    8048c4f <phase_3+0x7b>
 8048ca8:	e8 e3 fa ff ff       	call   8048790 <__stack_chk_fail@plt>

08048cad <func4>:
 8048cad:	56                   	push   %esi
 8048cae:	53                   	push   %ebx
 8048caf:	83 ec 04             	sub    $0x4,%esp
 8048cb2:	8b 44 24 10          	mov    0x10(%esp),%eax
 8048cb6:	8b 54 24 14          	mov    0x14(%esp),%edx
 8048cba:	8b 4c 24 18          	mov    0x18(%esp),%ecx
 8048cbe:	89 ce                	mov    %ecx,%esi
 8048cc0:	29 d6                	sub    %edx,%esi
 8048cc2:	89 f3                	mov    %esi,%ebx
 8048cc4:	c1 eb 1f             	shr    $0x1f,%ebx
 8048cc7:	01 f3                	add    %esi,%ebx
 8048cc9:	d1 fb                	sar    %ebx
 8048ccb:	01 d3                	add    %edx,%ebx
 8048ccd:	39 c3                	cmp    %eax,%ebx
 8048ccf:	7f 0c                	jg     8048cdd <func4+0x30>
 8048cd1:	39 c3                	cmp    %eax,%ebx
 8048cd3:	7c 1d                	jl     8048cf2 <func4+0x45>
 8048cd5:	89 d8                	mov    %ebx,%eax
 8048cd7:	83 c4 04             	add    $0x4,%esp
 8048cda:	5b                   	pop    %ebx
 8048cdb:	5e                   	pop    %esi
 8048cdc:	c3                   	ret    
 8048cdd:	83 ec 04             	sub    $0x4,%esp
 8048ce0:	8d 4b ff             	lea    -0x1(%ebx),%ecx
 8048ce3:	51                   	push   %ecx
 8048ce4:	52                   	push   %edx
 8048ce5:	50                   	push   %eax
 8048ce6:	e8 c2 ff ff ff       	call   8048cad <func4>
 8048ceb:	83 c4 10             	add    $0x10,%esp
 8048cee:	01 c3                	add    %eax,%ebx
 8048cf0:	eb e3                	jmp    8048cd5 <func4+0x28>
 8048cf2:	83 ec 04             	sub    $0x4,%esp
 8048cf5:	51                   	push   %ecx
 8048cf6:	8d 53 01             	lea    0x1(%ebx),%edx
 8048cf9:	52                   	push   %edx
 8048cfa:	50                   	push   %eax
 8048cfb:	e8 ad ff ff ff       	call   8048cad <func4>
 8048d00:	83 c4 10             	add    $0x10,%esp
 8048d03:	01 c3                	add    %eax,%ebx
 8048d05:	eb ce                	jmp    8048cd5 <func4+0x28>

08048d07 <phase_4>:
 8048d07:	83 ec 1c             	sub    $0x1c,%esp
 8048d0a:	65 a1 14 00 00 00    	mov    %gs:0x14,%eax
 8048d10:	89 44 24 0c          	mov    %eax,0xc(%esp)
 8048d14:	31 c0                	xor    %eax,%eax
 8048d16:	8d 44 24 08          	lea    0x8(%esp),%eax
 8048d1a:	50                   	push   %eax
 8048d1b:	8d 44 24 08          	lea    0x8(%esp),%eax
 8048d1f:	50                   	push   %eax
 8048d20:	68 ef a1 04 08       	push   $0x804a1ef
 8048d25:	ff 74 24 2c          	pushl  0x2c(%esp)
 8048d29:	e8 e2 fa ff ff       	call   8048810 <__isoc99_sscanf@plt>
 8048d2e:	83 c4 10             	add    $0x10,%esp
 8048d31:	83 f8 02             	cmp    $0x2,%eax
 8048d34:	74 33                	je     8048d69 <phase_4+0x62>
 8048d36:	e8 cc 03 00 00       	call   8049107 <explode_bomb>
 8048d3b:	83 ec 04             	sub    $0x4,%esp
 8048d3e:	6a 0e                	push   $0xe
 8048d40:	6a 00                	push   $0x0
 8048d42:	ff 74 24 10          	pushl  0x10(%esp)
 8048d46:	e8 62 ff ff ff       	call   8048cad <func4>
 8048d4b:	83 c4 10             	add    $0x10,%esp
 8048d4e:	83 f8 12             	cmp    $0x12,%eax
 8048d51:	74 1f                	je     8048d72 <phase_4+0x6b>
 8048d53:	e8 af 03 00 00       	call   8049107 <explode_bomb>
 8048d58:	8b 44 24 0c          	mov    0xc(%esp),%eax
 8048d5c:	65 33 05 14 00 00 00 	xor    %gs:0x14,%eax
 8048d63:	75 16                	jne    8048d7b <phase_4+0x74>
 8048d65:	83 c4 1c             	add    $0x1c,%esp
 8048d68:	c3                   	ret    
 8048d69:	83 7c 24 04 0e       	cmpl   $0xe,0x4(%esp)
 8048d6e:	76 cb                	jbe    8048d3b <phase_4+0x34>
 8048d70:	eb c4                	jmp    8048d36 <phase_4+0x2f>
 8048d72:	83 7c 24 08 12       	cmpl   $0x12,0x8(%esp)
 8048d77:	75 da                	jne    8048d53 <phase_4+0x4c>
 8048d79:	eb dd                	jmp    8048d58 <phase_4+0x51>
 8048d7b:	e8 10 fa ff ff       	call   8048790 <__stack_chk_fail@plt>

08048d80 <phase_5>:
 8048d80:	53                   	push   %ebx
 8048d81:	83 ec 14             	sub    $0x14,%esp
 8048d84:	8b 5c 24 1c          	mov    0x1c(%esp),%ebx
 8048d88:	53                   	push   %ebx
 8048d89:	e8 65 02 00 00       	call   8048ff3 <string_length>
 8048d8e:	83 c4 10             	add    $0x10,%esp
 8048d91:	83 f8 06             	cmp    $0x6,%eax
 8048d94:	74 05                	je     8048d9b <phase_5+0x1b>
 8048d96:	e8 6c 03 00 00       	call   8049107 <explode_bomb>
 8048d9b:	89 d8                	mov    %ebx,%eax
 8048d9d:	83 c3 06             	add    $0x6,%ebx
 8048da0:	b9 00 00 00 00       	mov    $0x0,%ecx
 8048da5:	0f b6 10             	movzbl (%eax),%edx
 8048da8:	83 e2 0f             	and    $0xf,%edx
 8048dab:	03 0c 95 a0 a0 04 08 	add    0x804a0a0(,%edx,4),%ecx
 8048db2:	83 c0 01             	add    $0x1,%eax
 8048db5:	39 d8                	cmp    %ebx,%eax
 8048db7:	75 ec                	jne    8048da5 <phase_5+0x25>
 8048db9:	83 f9 36             	cmp    $0x36,%ecx
 8048dbc:	74 05                	je     8048dc3 <phase_5+0x43>
 8048dbe:	e8 44 03 00 00       	call   8049107 <explode_bomb>
 8048dc3:	83 c4 08             	add    $0x8,%esp
 8048dc6:	5b                   	pop    %ebx
 8048dc7:	c3                   	ret    

08048dc8 <phase_6>:
 8048dc8:	56                   	push   %esi
 8048dc9:	53                   	push   %ebx
 8048dca:	83 ec 4c             	sub    $0x4c,%esp
 8048dcd:	65 a1 14 00 00 00    	mov    %gs:0x14,%eax
 8048dd3:	89 44 24 44          	mov    %eax,0x44(%esp)
 8048dd7:	31 c0                	xor    %eax,%eax
 8048dd9:	8d 44 24 14          	lea    0x14(%esp),%eax
 8048ddd:	50                   	push   %eax
 8048dde:	ff 74 24 5c          	pushl  0x5c(%esp)
 8048de2:	e8 45 03 00 00       	call   804912c <read_six_numbers>
 8048de7:	83 c4 10             	add    $0x10,%esp
 8048dea:	be 00 00 00 00       	mov    $0x0,%esi
 8048def:	eb 1c                	jmp    8048e0d <phase_6+0x45>
 8048df1:	83 c6 01             	add    $0x1,%esi
 8048df4:	83 fe 06             	cmp    $0x6,%esi
 8048df7:	74 2e                	je     8048e27 <phase_6+0x5f>
 8048df9:	89 f3                	mov    %esi,%ebx
 8048dfb:	8b 44 9c 0c          	mov    0xc(%esp,%ebx,4),%eax
 8048dff:	39 44 b4 08          	cmp    %eax,0x8(%esp,%esi,4)
 8048e03:	74 1b                	je     8048e20 <phase_6+0x58>
 8048e05:	83 c3 01             	add    $0x1,%ebx
 8048e08:	83 fb 05             	cmp    $0x5,%ebx
 8048e0b:	7e ee                	jle    8048dfb <phase_6+0x33>
 8048e0d:	8b 44 b4 0c          	mov    0xc(%esp,%esi,4),%eax
 8048e11:	83 e8 01             	sub    $0x1,%eax
 8048e14:	83 f8 05             	cmp    $0x5,%eax
 8048e17:	76 d8                	jbe    8048df1 <phase_6+0x29>
 8048e19:	e8 e9 02 00 00       	call   8049107 <explode_bomb>
 8048e1e:	eb d1                	jmp    8048df1 <phase_6+0x29>
 8048e20:	e8 e2 02 00 00       	call   8049107 <explode_bomb>
 8048e25:	eb de                	jmp    8048e05 <phase_6+0x3d>
 8048e27:	8d 44 24 0c          	lea    0xc(%esp),%eax
 8048e2b:	8d 5c 24 24          	lea    0x24(%esp),%ebx
 8048e2f:	b9 07 00 00 00       	mov    $0x7,%ecx
 8048e34:	89 ca                	mov    %ecx,%edx
 8048e36:	2b 10                	sub    (%eax),%edx
 8048e38:	89 10                	mov    %edx,(%eax)
 8048e3a:	83 c0 04             	add    $0x4,%eax
 8048e3d:	39 c3                	cmp    %eax,%ebx
 8048e3f:	75 f3                	jne    8048e34 <phase_6+0x6c>
 8048e41:	bb 00 00 00 00       	mov    $0x0,%ebx
 8048e46:	89 de                	mov    %ebx,%esi
 8048e48:	8b 4c 9c 0c          	mov    0xc(%esp,%ebx,4),%ecx
 8048e4c:	b8 01 00 00 00       	mov    $0x1,%eax
 8048e51:	ba 3c c1 04 08       	mov    $0x804c13c,%edx
 8048e56:	83 f9 01             	cmp    $0x1,%ecx
 8048e59:	7e 0a                	jle    8048e65 <phase_6+0x9d>
 8048e5b:	8b 52 08             	mov    0x8(%edx),%edx
 8048e5e:	83 c0 01             	add    $0x1,%eax
 8048e61:	39 c8                	cmp    %ecx,%eax
 8048e63:	75 f6                	jne    8048e5b <phase_6+0x93>
 8048e65:	89 54 b4 24          	mov    %edx,0x24(%esp,%esi,4)
 8048e69:	83 c3 01             	add    $0x1,%ebx
 8048e6c:	83 fb 06             	cmp    $0x6,%ebx
 8048e6f:	75 d5                	jne    8048e46 <phase_6+0x7e>
 8048e71:	8b 5c 24 24          	mov    0x24(%esp),%ebx
 8048e75:	89 d9                	mov    %ebx,%ecx
 8048e77:	b8 01 00 00 00       	mov    $0x1,%eax
 8048e7c:	8b 54 84 24          	mov    0x24(%esp,%eax,4),%edx
 8048e80:	89 51 08             	mov    %edx,0x8(%ecx)
 8048e83:	83 c0 01             	add    $0x1,%eax
 8048e86:	89 d1                	mov    %edx,%ecx
 8048e88:	83 f8 06             	cmp    $0x6,%eax
 8048e8b:	75 ef                	jne    8048e7c <phase_6+0xb4>
 8048e8d:	c7 42 08 00 00 00 00 	movl   $0x0,0x8(%edx)
 8048e94:	be 05 00 00 00       	mov    $0x5,%esi
 8048e99:	eb 08                	jmp    8048ea3 <phase_6+0xdb>
 8048e9b:	8b 5b 08             	mov    0x8(%ebx),%ebx
 8048e9e:	83 ee 01             	sub    $0x1,%esi
 8048ea1:	74 10                	je     8048eb3 <phase_6+0xeb>
 8048ea3:	8b 43 08             	mov    0x8(%ebx),%eax
 8048ea6:	8b 00                	mov    (%eax),%eax
 8048ea8:	39 03                	cmp    %eax,(%ebx)
 8048eaa:	7d ef                	jge    8048e9b <phase_6+0xd3>
 8048eac:	e8 56 02 00 00       	call   8049107 <explode_bomb>
 8048eb1:	eb e8                	jmp    8048e9b <phase_6+0xd3>
 8048eb3:	8b 44 24 3c          	mov    0x3c(%esp),%eax
 8048eb7:	65 33 05 14 00 00 00 	xor    %gs:0x14,%eax
 8048ebe:	75 06                	jne    8048ec6 <phase_6+0xfe>
 8048ec0:	83 c4 44             	add    $0x44,%esp
 8048ec3:	5b                   	pop    %ebx
 8048ec4:	5e                   	pop    %esi
 8048ec5:	c3                   	ret    
 8048ec6:	e8 c5 f8 ff ff       	call   8048790 <__stack_chk_fail@plt>

08048ecb <fun7>:
 8048ecb:	53                   	push   %ebx
 8048ecc:	83 ec 08             	sub    $0x8,%esp
 8048ecf:	8b 54 24 10          	mov    0x10(%esp),%edx
 8048ed3:	8b 4c 24 14          	mov    0x14(%esp),%ecx
 8048ed7:	85 d2                	test   %edx,%edx
 8048ed9:	74 3a                	je     8048f15 <fun7+0x4a>
 8048edb:	8b 1a                	mov    (%edx),%ebx
 8048edd:	39 cb                	cmp    %ecx,%ebx
 8048edf:	7f 21                	jg     8048f02 <fun7+0x37>
 8048ee1:	b8 00 00 00 00       	mov    $0x0,%eax
 8048ee6:	39 cb                	cmp    %ecx,%ebx
 8048ee8:	74 13                	je     8048efd <fun7+0x32>
 8048eea:	83 ec 08             	sub    $0x8,%esp
 8048eed:	51                   	push   %ecx
 8048eee:	ff 72 08             	pushl  0x8(%edx)
 8048ef1:	e8 d5 ff ff ff       	call   8048ecb <fun7>
 8048ef6:	83 c4 10             	add    $0x10,%esp
 8048ef9:	8d 44 00 01          	lea    0x1(%eax,%eax,1),%eax
 8048efd:	83 c4 08             	add    $0x8,%esp
 8048f00:	5b                   	pop    %ebx
 8048f01:	c3                   	ret    
 8048f02:	83 ec 08             	sub    $0x8,%esp
 8048f05:	51                   	push   %ecx
 8048f06:	ff 72 04             	pushl  0x4(%edx)
 8048f09:	e8 bd ff ff ff       	call   8048ecb <fun7>
 8048f0e:	83 c4 10             	add    $0x10,%esp
 8048f11:	01 c0                	add    %eax,%eax
 8048f13:	eb e8                	jmp    8048efd <fun7+0x32>
 8048f15:	b8 ff ff ff ff       	mov    $0xffffffff,%eax
 8048f1a:	eb e1                	jmp    8048efd <fun7+0x32>

08048f1c <secret_phase>:
 8048f1c:	53                   	push   %ebx
 8048f1d:	83 ec 08             	sub    $0x8,%esp
 8048f20:	e8 42 02 00 00       	call   8049167 <read_line>
 8048f25:	83 ec 04             	sub    $0x4,%esp
 8048f28:	6a 0a                	push   $0xa
 8048f2a:	6a 00                	push   $0x0
 8048f2c:	50                   	push   %eax
 8048f2d:	e8 4e f9 ff ff       	call   8048880 <strtol@plt>
 8048f32:	89 c3                	mov    %eax,%ebx
 8048f34:	8d 40 ff             	lea    -0x1(%eax),%eax
 8048f37:	83 c4 10             	add    $0x10,%esp
 8048f3a:	3d e8 03 00 00       	cmp    $0x3e8,%eax
 8048f3f:	77 32                	ja     8048f73 <secret_phase+0x57>
 8048f41:	83 ec 08             	sub    $0x8,%esp
 8048f44:	53                   	push   %ebx
 8048f45:	68 88 c0 04 08       	push   $0x804c088
 8048f4a:	e8 7c ff ff ff       	call   8048ecb <fun7>
 8048f4f:	83 c4 10             	add    $0x10,%esp
 8048f52:	83 f8 03             	cmp    $0x3,%eax
 8048f55:	74 05                	je     8048f5c <secret_phase+0x40>
 8048f57:	e8 ab 01 00 00       	call   8049107 <explode_bomb>
 8048f5c:	83 ec 0c             	sub    $0xc,%esp
 8048f5f:	68 44 a0 04 08       	push   $0x804a044
 8048f64:	e8 57 f8 ff ff       	call   80487c0 <puts@plt>
 8048f69:	e8 f8 02 00 00       	call   8049266 <phase_defused>
 8048f6e:	83 c4 18             	add    $0x18,%esp
 8048f71:	5b                   	pop    %ebx
 8048f72:	c3                   	ret    
 8048f73:	e8 8f 01 00 00       	call   8049107 <explode_bomb>
 8048f78:	eb c7                	jmp    8048f41 <secret_phase+0x25>

08048f7a <sig_handler>:
 8048f7a:	83 ec 18             	sub    $0x18,%esp
 8048f7d:	68 e0 a0 04 08       	push   $0x804a0e0
 8048f82:	e8 39 f8 ff ff       	call   80487c0 <puts@plt>
 8048f87:	c7 04 24 03 00 00 00 	movl   $0x3,(%esp)
 8048f8e:	e8 dd f7 ff ff       	call   8048770 <sleep@plt>
 8048f93:	83 c4 08             	add    $0x8,%esp
 8048f96:	68 a2 a1 04 08       	push   $0x804a1a2
 8048f9b:	6a 01                	push   $0x1
 8048f9d:	e8 9e f8 ff ff       	call   8048840 <__printf_chk@plt>
 8048fa2:	83 c4 04             	add    $0x4,%esp
 8048fa5:	ff 35 c4 c3 04 08    	pushl  0x804c3c4
 8048fab:	e8 90 f7 ff ff       	call   8048740 <fflush@plt>
 8048fb0:	c7 04 24 01 00 00 00 	movl   $0x1,(%esp)
 8048fb7:	e8 b4 f7 ff ff       	call   8048770 <sleep@plt>
 8048fbc:	c7 04 24 aa a1 04 08 	movl   $0x804a1aa,(%esp)
 8048fc3:	e8 f8 f7 ff ff       	call   80487c0 <puts@plt>
 8048fc8:	c7 04 24 10 00 00 00 	movl   $0x10,(%esp)
 8048fcf:	e8 0c f8 ff ff       	call   80487e0 <exit@plt>

08048fd4 <invalid_phase>:
 8048fd4:	83 ec 10             	sub    $0x10,%esp
 8048fd7:	ff 74 24 14          	pushl  0x14(%esp)
 8048fdb:	68 b2 a1 04 08       	push   $0x804a1b2
 8048fe0:	6a 01                	push   $0x1
 8048fe2:	e8 59 f8 ff ff       	call   8048840 <__printf_chk@plt>
 8048fe7:	c7 04 24 08 00 00 00 	movl   $0x8,(%esp)
 8048fee:	e8 ed f7 ff ff       	call   80487e0 <exit@plt>

08048ff3 <string_length>:
 8048ff3:	8b 54 24 04          	mov    0x4(%esp),%edx
 8048ff7:	80 3a 00             	cmpb   $0x0,(%edx)
 8048ffa:	74 10                	je     804900c <string_length+0x19>
 8048ffc:	b8 00 00 00 00       	mov    $0x0,%eax
 8049001:	83 c0 01             	add    $0x1,%eax
 8049004:	80 3c 02 00          	cmpb   $0x0,(%edx,%eax,1)
 8049008:	75 f7                	jne    8049001 <string_length+0xe>
 804900a:	f3 c3                	repz ret 
 804900c:	b8 00 00 00 00       	mov    $0x0,%eax
 8049011:	c3                   	ret    

08049012 <strings_not_equal>:
 8049012:	57                   	push   %edi
 8049013:	56                   	push   %esi
 8049014:	53                   	push   %ebx
 8049015:	8b 5c 24 10          	mov    0x10(%esp),%ebx
 8049019:	8b 74 24 14          	mov    0x14(%esp),%esi
 804901d:	53                   	push   %ebx
 804901e:	e8 d0 ff ff ff       	call   8048ff3 <string_length>
 8049023:	89 c7                	mov    %eax,%edi
 8049025:	89 34 24             	mov    %esi,(%esp)
 8049028:	e8 c6 ff ff ff       	call   8048ff3 <string_length>
 804902d:	83 c4 04             	add    $0x4,%esp
 8049030:	ba 01 00 00 00       	mov    $0x1,%edx
 8049035:	39 c7                	cmp    %eax,%edi
 8049037:	74 06                	je     804903f <strings_not_equal+0x2d>
 8049039:	89 d0                	mov    %edx,%eax
 804903b:	5b                   	pop    %ebx
 804903c:	5e                   	pop    %esi
 804903d:	5f                   	pop    %edi
 804903e:	c3                   	ret    
 804903f:	0f b6 03             	movzbl (%ebx),%eax
 8049042:	84 c0                	test   %al,%al
 8049044:	74 23                	je     8049069 <strings_not_equal+0x57>
 8049046:	3a 06                	cmp    (%esi),%al
 8049048:	75 26                	jne    8049070 <strings_not_equal+0x5e>
 804904a:	83 c3 01             	add    $0x1,%ebx
 804904d:	83 c6 01             	add    $0x1,%esi
 8049050:	0f b6 03             	movzbl (%ebx),%eax
 8049053:	84 c0                	test   %al,%al
 8049055:	74 0b                	je     8049062 <strings_not_equal+0x50>
 8049057:	3a 06                	cmp    (%esi),%al
 8049059:	74 ef                	je     804904a <strings_not_equal+0x38>
 804905b:	ba 01 00 00 00       	mov    $0x1,%edx
 8049060:	eb d7                	jmp    8049039 <strings_not_equal+0x27>
 8049062:	ba 00 00 00 00       	mov    $0x0,%edx
 8049067:	eb d0                	jmp    8049039 <strings_not_equal+0x27>
 8049069:	ba 00 00 00 00       	mov    $0x0,%edx
 804906e:	eb c9                	jmp    8049039 <strings_not_equal+0x27>
 8049070:	ba 01 00 00 00       	mov    $0x1,%edx
 8049075:	eb c2                	jmp    8049039 <strings_not_equal+0x27>

08049077 <initialize_bomb>:
 8049077:	83 ec 14             	sub    $0x14,%esp
 804907a:	68 7a 8f 04 08       	push   $0x8048f7a
 804907f:	6a 02                	push   $0x2
 8049081:	e8 da f6 ff ff       	call   8048760 <signal@plt>
 8049086:	83 c4 1c             	add    $0x1c,%esp
 8049089:	c3                   	ret    

0804908a <initialize_bomb_solve>:
 804908a:	f3 c3                	repz ret 

0804908c <blank_line>:
 804908c:	56                   	push   %esi
 804908d:	53                   	push   %ebx
 804908e:	83 ec 04             	sub    $0x4,%esp
 8049091:	8b 74 24 10          	mov    0x10(%esp),%esi
 8049095:	0f b6 1e             	movzbl (%esi),%ebx
 8049098:	84 db                	test   %bl,%bl
 804909a:	74 1b                	je     80490b7 <blank_line+0x2b>
 804909c:	e8 0f f8 ff ff       	call   80488b0 <__ctype_b_loc@plt>
 80490a1:	83 c6 01             	add    $0x1,%esi
 80490a4:	0f be db             	movsbl %bl,%ebx
 80490a7:	8b 00                	mov    (%eax),%eax
 80490a9:	f6 44 58 01 20       	testb  $0x20,0x1(%eax,%ebx,2)
 80490ae:	75 e5                	jne    8049095 <blank_line+0x9>
 80490b0:	b8 00 00 00 00       	mov    $0x0,%eax
 80490b5:	eb 05                	jmp    80490bc <blank_line+0x30>
 80490b7:	b8 01 00 00 00       	mov    $0x1,%eax
 80490bc:	83 c4 04             	add    $0x4,%esp
 80490bf:	5b                   	pop    %ebx
 80490c0:	5e                   	pop    %esi
 80490c1:	c3                   	ret    

080490c2 <skip>:
 80490c2:	53                   	push   %ebx
 80490c3:	83 ec 08             	sub    $0x8,%esp
 80490c6:	83 ec 04             	sub    $0x4,%esp
 80490c9:	ff 35 d0 c3 04 08    	pushl  0x804c3d0
 80490cf:	6a 50                	push   $0x50
 80490d1:	a1 cc c3 04 08       	mov    0x804c3cc,%eax
 80490d6:	8d 04 80             	lea    (%eax,%eax,4),%eax
 80490d9:	c1 e0 04             	shl    $0x4,%eax
 80490dc:	05 e0 c3 04 08       	add    $0x804c3e0,%eax
 80490e1:	50                   	push   %eax
 80490e2:	e8 69 f6 ff ff       	call   8048750 <fgets@plt>
 80490e7:	89 c3                	mov    %eax,%ebx
 80490e9:	83 c4 10             	add    $0x10,%esp
 80490ec:	85 c0                	test   %eax,%eax
 80490ee:	74 10                	je     8049100 <skip+0x3e>
 80490f0:	83 ec 0c             	sub    $0xc,%esp
 80490f3:	50                   	push   %eax
 80490f4:	e8 93 ff ff ff       	call   804908c <blank_line>
 80490f9:	83 c4 10             	add    $0x10,%esp
 80490fc:	85 c0                	test   %eax,%eax
 80490fe:	75 c6                	jne    80490c6 <skip+0x4>
 8049100:	89 d8                	mov    %ebx,%eax
 8049102:	83 c4 08             	add    $0x8,%esp
 8049105:	5b                   	pop    %ebx
 8049106:	c3                   	ret    

08049107 <explode_bomb>:
 8049107:	83 ec 18             	sub    $0x18,%esp
 804910a:	68 c3 a1 04 08       	push   $0x804a1c3
 804910f:	e8 ac f6 ff ff       	call   80487c0 <puts@plt>
 8049114:	c7 04 24 cc a1 04 08 	movl   $0x804a1cc,(%esp)
 804911b:	e8 a0 f6 ff ff       	call   80487c0 <puts@plt>
 8049120:	c7 04 24 08 00 00 00 	movl   $0x8,(%esp)
 8049127:	e8 b4 f6 ff ff       	call   80487e0 <exit@plt>

0804912c <read_six_numbers>:
 804912c:	83 ec 0c             	sub    $0xc,%esp
 804912f:	8b 44 24 14          	mov    0x14(%esp),%eax
 8049133:	8d 50 14             	lea    0x14(%eax),%edx
 8049136:	52                   	push   %edx
 8049137:	8d 50 10             	lea    0x10(%eax),%edx
 804913a:	52                   	push   %edx
 804913b:	8d 50 0c             	lea    0xc(%eax),%edx
 804913e:	52                   	push   %edx
 804913f:	8d 50 08             	lea    0x8(%eax),%edx
 8049142:	52                   	push   %edx
 8049143:	8d 50 04             	lea    0x4(%eax),%edx
 8049146:	52                   	push   %edx
 8049147:	50                   	push   %eax
 8049148:	68 e3 a1 04 08       	push   $0x804a1e3
 804914d:	ff 74 24 2c          	pushl  0x2c(%esp)
 8049151:	e8 ba f6 ff ff       	call   8048810 <__isoc99_sscanf@plt>
 8049156:	83 c4 20             	add    $0x20,%esp
 8049159:	83 f8 05             	cmp    $0x5,%eax
 804915c:	7e 04                	jle    8049162 <read_six_numbers+0x36>
 804915e:	83 c4 0c             	add    $0xc,%esp
 8049161:	c3                   	ret    
 8049162:	e8 a0 ff ff ff       	call   8049107 <explode_bomb>

08049167 <read_line>:
 8049167:	57                   	push   %edi
 8049168:	56                   	push   %esi
 8049169:	53                   	push   %ebx
 804916a:	e8 53 ff ff ff       	call   80490c2 <skip>
 804916f:	85 c0                	test   %eax,%eax
 8049171:	74 4b                	je     80491be <read_line+0x57>
 8049173:	8b 15 cc c3 04 08    	mov    0x804c3cc,%edx
 8049179:	8d 1c 92             	lea    (%edx,%edx,4),%ebx
 804917c:	c1 e3 04             	shl    $0x4,%ebx
 804917f:	81 c3 e0 c3 04 08    	add    $0x804c3e0,%ebx
 8049185:	b8 00 00 00 00       	mov    $0x0,%eax
 804918a:	b9 ff ff ff ff       	mov    $0xffffffff,%ecx
 804918f:	89 df                	mov    %ebx,%edi
 8049191:	f2 ae                	repnz scas %es:(%edi),%al
 8049193:	f7 d1                	not    %ecx
 8049195:	83 e9 01             	sub    $0x1,%ecx
 8049198:	83 f9 4e             	cmp    $0x4e,%ecx
 804919b:	0f 8f 8d 00 00 00    	jg     804922e <read_line+0xc7>
 80491a1:	8d 04 92             	lea    (%edx,%edx,4),%eax
 80491a4:	c1 e0 04             	shl    $0x4,%eax
 80491a7:	c6 84 01 df c3 04 08 	movb   $0x0,0x804c3df(%ecx,%eax,1)
 80491ae:	00 
 80491af:	83 c2 01             	add    $0x1,%edx
 80491b2:	89 15 cc c3 04 08    	mov    %edx,0x804c3cc
 80491b8:	89 d8                	mov    %ebx,%eax
 80491ba:	5b                   	pop    %ebx
 80491bb:	5e                   	pop    %esi
 80491bc:	5f                   	pop    %edi
 80491bd:	c3                   	ret    
 80491be:	a1 c0 c3 04 08       	mov    0x804c3c0,%eax
 80491c3:	39 05 d0 c3 04 08    	cmp    %eax,0x804c3d0
 80491c9:	74 40                	je     804920b <read_line+0xa4>
 80491cb:	83 ec 0c             	sub    $0xc,%esp
 80491ce:	68 13 a2 04 08       	push   $0x804a213
 80491d3:	e8 d8 f5 ff ff       	call   80487b0 <getenv@plt>
 80491d8:	83 c4 10             	add    $0x10,%esp
 80491db:	85 c0                	test   %eax,%eax
 80491dd:	75 45                	jne    8049224 <read_line+0xbd>
 80491df:	a1 c0 c3 04 08       	mov    0x804c3c0,%eax
 80491e4:	a3 d0 c3 04 08       	mov    %eax,0x804c3d0
 80491e9:	e8 d4 fe ff ff       	call   80490c2 <skip>
 80491ee:	85 c0                	test   %eax,%eax
 80491f0:	75 81                	jne    8049173 <read_line+0xc>
 80491f2:	83 ec 0c             	sub    $0xc,%esp
 80491f5:	68 f5 a1 04 08       	push   $0x804a1f5
 80491fa:	e8 c1 f5 ff ff       	call   80487c0 <puts@plt>
 80491ff:	c7 04 24 00 00 00 00 	movl   $0x0,(%esp)
 8049206:	e8 d5 f5 ff ff       	call   80487e0 <exit@plt>
 804920b:	83 ec 0c             	sub    $0xc,%esp
 804920e:	68 f5 a1 04 08       	push   $0x804a1f5
 8049213:	e8 a8 f5 ff ff       	call   80487c0 <puts@plt>
 8049218:	c7 04 24 08 00 00 00 	movl   $0x8,(%esp)
 804921f:	e8 bc f5 ff ff       	call   80487e0 <exit@plt>
 8049224:	83 ec 0c             	sub    $0xc,%esp
 8049227:	6a 00                	push   $0x0
 8049229:	e8 b2 f5 ff ff       	call   80487e0 <exit@plt>
 804922e:	83 ec 0c             	sub    $0xc,%esp
 8049231:	68 1e a2 04 08       	push   $0x804a21e
 8049236:	e8 85 f5 ff ff       	call   80487c0 <puts@plt>
 804923b:	a1 cc c3 04 08       	mov    0x804c3cc,%eax
 8049240:	8d 50 01             	lea    0x1(%eax),%edx
 8049243:	89 15 cc c3 04 08    	mov    %edx,0x804c3cc
 8049249:	6b c0 50             	imul   $0x50,%eax,%eax
 804924c:	05 e0 c3 04 08       	add    $0x804c3e0,%eax
 8049251:	ba 39 a2 04 08       	mov    $0x804a239,%edx
 8049256:	b9 04 00 00 00       	mov    $0x4,%ecx
 804925b:	89 c7                	mov    %eax,%edi
 804925d:	89 d6                	mov    %edx,%esi
 804925f:	f3 a5                	rep movsl %ds:(%esi),%es:(%edi)
 8049261:	e8 a1 fe ff ff       	call   8049107 <explode_bomb>

08049266 <phase_defused>:
 8049266:	83 ec 6c             	sub    $0x6c,%esp
 8049269:	65 a1 14 00 00 00    	mov    %gs:0x14,%eax
 804926f:	89 44 24 5c          	mov    %eax,0x5c(%esp)
 8049273:	31 c0                	xor    %eax,%eax
 8049275:	83 3d cc c3 04 08 06 	cmpl   $0x6,0x804c3cc
 804927c:	74 11                	je     804928f <phase_defused+0x29>
 804927e:	8b 44 24 5c          	mov    0x5c(%esp),%eax
 8049282:	65 33 05 14 00 00 00 	xor    %gs:0x14,%eax
 8049289:	75 7b                	jne    8049306 <phase_defused+0xa0>
 804928b:	83 c4 6c             	add    $0x6c,%esp
 804928e:	c3                   	ret    
 804928f:	83 ec 0c             	sub    $0xc,%esp
 8049292:	8d 44 24 18          	lea    0x18(%esp),%eax
 8049296:	50                   	push   %eax
 8049297:	8d 44 24 18          	lea    0x18(%esp),%eax
 804929b:	50                   	push   %eax
 804929c:	8d 44 24 18          	lea    0x18(%esp),%eax
 80492a0:	50                   	push   %eax
 80492a1:	68 49 a2 04 08       	push   $0x804a249
 80492a6:	68 d0 c4 04 08       	push   $0x804c4d0
 80492ab:	e8 60 f5 ff ff       	call   8048810 <__isoc99_sscanf@plt>
 80492b0:	83 c4 20             	add    $0x20,%esp
 80492b3:	83 f8 03             	cmp    $0x3,%eax
 80492b6:	74 12                	je     80492ca <phase_defused+0x64>
 80492b8:	83 ec 0c             	sub    $0xc,%esp
 80492bb:	68 78 a1 04 08       	push   $0x804a178
 80492c0:	e8 fb f4 ff ff       	call   80487c0 <puts@plt>
 80492c5:	83 c4 10             	add    $0x10,%esp
 80492c8:	eb b4                	jmp    804927e <phase_defused+0x18>
 80492ca:	83 ec 08             	sub    $0x8,%esp
 80492cd:	68 52 a2 04 08       	push   $0x804a252
 80492d2:	8d 44 24 18          	lea    0x18(%esp),%eax
 80492d6:	50                   	push   %eax
 80492d7:	e8 36 fd ff ff       	call   8049012 <strings_not_equal>
 80492dc:	83 c4 10             	add    $0x10,%esp
 80492df:	85 c0                	test   %eax,%eax
 80492e1:	75 d5                	jne    80492b8 <phase_defused+0x52>
 80492e3:	83 ec 0c             	sub    $0xc,%esp
 80492e6:	68 18 a1 04 08       	push   $0x804a118
 80492eb:	e8 d0 f4 ff ff       	call   80487c0 <puts@plt>
 80492f0:	c7 04 24 40 a1 04 08 	movl   $0x804a140,(%esp)
 80492f7:	e8 c4 f4 ff ff       	call   80487c0 <puts@plt>
 80492fc:	e8 1b fc ff ff       	call   8048f1c <secret_phase>
 8049301:	83 c4 10             	add    $0x10,%esp
 8049304:	eb b2                	jmp    80492b8 <phase_defused+0x52>
 8049306:	e8 85 f4 ff ff       	call   8048790 <__stack_chk_fail@plt>

0804930b <sigalrm_handler>:
 804930b:	83 ec 0c             	sub    $0xc,%esp
 804930e:	6a 00                	push   $0x0
 8049310:	68 a8 a2 04 08       	push   $0x804a2a8
 8049315:	6a 01                	push   $0x1
 8049317:	ff 35 a0 c3 04 08    	pushl  0x804c3a0
 804931d:	e8 3e f5 ff ff       	call   8048860 <__fprintf_chk@plt>
 8049322:	c7 04 24 01 00 00 00 	movl   $0x1,(%esp)
 8049329:	e8 b2 f4 ff ff       	call   80487e0 <exit@plt>

0804932e <rio_readlineb>:
 804932e:	55                   	push   %ebp
 804932f:	57                   	push   %edi
 8049330:	56                   	push   %esi
 8049331:	53                   	push   %ebx
 8049332:	83 ec 1c             	sub    $0x1c,%esp
 8049335:	83 f9 01             	cmp    $0x1,%ecx
 8049338:	76 79                	jbe    80493b3 <rio_readlineb+0x85>
 804933a:	89 d7                	mov    %edx,%edi
 804933c:	89 c3                	mov    %eax,%ebx
 804933e:	89 4c 24 0c          	mov    %ecx,0xc(%esp)
 8049342:	bd 01 00 00 00       	mov    $0x1,%ebp
 8049347:	8d 70 0c             	lea    0xc(%eax),%esi
 804934a:	eb 0a                	jmp    8049356 <rio_readlineb+0x28>
 804934c:	e8 df f4 ff ff       	call   8048830 <__errno_location@plt>
 8049351:	83 38 04             	cmpl   $0x4,(%eax)
 8049354:	75 66                	jne    80493bc <rio_readlineb+0x8e>
 8049356:	8b 43 04             	mov    0x4(%ebx),%eax
 8049359:	85 c0                	test   %eax,%eax
 804935b:	7f 23                	jg     8049380 <rio_readlineb+0x52>
 804935d:	83 ec 04             	sub    $0x4,%esp
 8049360:	68 00 20 00 00       	push   $0x2000
 8049365:	56                   	push   %esi
 8049366:	ff 33                	pushl  (%ebx)
 8049368:	e8 c3 f3 ff ff       	call   8048730 <read@plt>
 804936d:	89 43 04             	mov    %eax,0x4(%ebx)
 8049370:	83 c4 10             	add    $0x10,%esp
 8049373:	85 c0                	test   %eax,%eax
 8049375:	78 d5                	js     804934c <rio_readlineb+0x1e>
 8049377:	85 c0                	test   %eax,%eax
 8049379:	74 48                	je     80493c3 <rio_readlineb+0x95>
 804937b:	89 73 08             	mov    %esi,0x8(%ebx)
 804937e:	eb d6                	jmp    8049356 <rio_readlineb+0x28>
 8049380:	8b 4b 08             	mov    0x8(%ebx),%ecx
 8049383:	0f b6 11             	movzbl (%ecx),%edx
 8049386:	83 c1 01             	add    $0x1,%ecx
 8049389:	89 4b 08             	mov    %ecx,0x8(%ebx)
 804938c:	83 e8 01             	sub    $0x1,%eax
 804938f:	89 43 04             	mov    %eax,0x4(%ebx)
 8049392:	83 c7 01             	add    $0x1,%edi
 8049395:	88 57 ff             	mov    %dl,-0x1(%edi)
 8049398:	80 fa 0a             	cmp    $0xa,%dl
 804939b:	74 09                	je     80493a6 <rio_readlineb+0x78>
 804939d:	83 c5 01             	add    $0x1,%ebp
 80493a0:	3b 6c 24 0c          	cmp    0xc(%esp),%ebp
 80493a4:	75 b0                	jne    8049356 <rio_readlineb+0x28>
 80493a6:	c6 07 00             	movb   $0x0,(%edi)
 80493a9:	89 e8                	mov    %ebp,%eax
 80493ab:	83 c4 1c             	add    $0x1c,%esp
 80493ae:	5b                   	pop    %ebx
 80493af:	5e                   	pop    %esi
 80493b0:	5f                   	pop    %edi
 80493b1:	5d                   	pop    %ebp
 80493b2:	c3                   	ret    
 80493b3:	89 d7                	mov    %edx,%edi
 80493b5:	bd 01 00 00 00       	mov    $0x1,%ebp
 80493ba:	eb ea                	jmp    80493a6 <rio_readlineb+0x78>
 80493bc:	b8 ff ff ff ff       	mov    $0xffffffff,%eax
 80493c1:	eb 05                	jmp    80493c8 <rio_readlineb+0x9a>
 80493c3:	b8 00 00 00 00       	mov    $0x0,%eax
 80493c8:	85 c0                	test   %eax,%eax
 80493ca:	75 0c                	jne    80493d8 <rio_readlineb+0xaa>
 80493cc:	83 fd 01             	cmp    $0x1,%ebp
 80493cf:	75 d5                	jne    80493a6 <rio_readlineb+0x78>
 80493d1:	bd 00 00 00 00       	mov    $0x0,%ebp
 80493d6:	eb d1                	jmp    80493a9 <rio_readlineb+0x7b>
 80493d8:	bd ff ff ff ff       	mov    $0xffffffff,%ebp
 80493dd:	eb ca                	jmp    80493a9 <rio_readlineb+0x7b>

080493df <submitr>:
 80493df:	55                   	push   %ebp
 80493e0:	57                   	push   %edi
 80493e1:	56                   	push   %esi
 80493e2:	53                   	push   %ebx
 80493e3:	81 ec 60 a0 00 00    	sub    $0xa060,%esp
 80493e9:	8b 9c 24 74 a0 00 00 	mov    0xa074(%esp),%ebx
 80493f0:	8b 84 24 7c a0 00 00 	mov    0xa07c(%esp),%eax
 80493f7:	89 44 24 0c          	mov    %eax,0xc(%esp)
 80493fb:	8b 84 24 80 a0 00 00 	mov    0xa080(%esp),%eax
 8049402:	89 44 24 10          	mov    %eax,0x10(%esp)
 8049406:	8b 84 24 84 a0 00 00 	mov    0xa084(%esp),%eax
 804940d:	89 44 24 14          	mov    %eax,0x14(%esp)
 8049411:	8b b4 24 88 a0 00 00 	mov    0xa088(%esp),%esi
 8049418:	8b 84 24 8c a0 00 00 	mov    0xa08c(%esp),%eax
 804941f:	89 44 24 18          	mov    %eax,0x18(%esp)
 8049423:	65 a1 14 00 00 00    	mov    %gs:0x14,%eax
 8049429:	89 84 24 50 a0 00 00 	mov    %eax,0xa050(%esp)
 8049430:	31 c0                	xor    %eax,%eax
 8049432:	c7 44 24 30 00 00 00 	movl   $0x0,0x30(%esp)
 8049439:	00 
 804943a:	6a 00                	push   $0x0
 804943c:	6a 01                	push   $0x1
 804943e:	6a 02                	push   $0x2
 8049440:	e8 0b f4 ff ff       	call   8048850 <socket@plt>
 8049445:	83 c4 10             	add    $0x10,%esp
 8049448:	85 c0                	test   %eax,%eax
 804944a:	0f 88 04 01 00 00    	js     8049554 <submitr+0x175>
 8049450:	89 c5                	mov    %eax,%ebp
 8049452:	83 ec 0c             	sub    $0xc,%esp
 8049455:	53                   	push   %ebx
 8049456:	e8 15 f4 ff ff       	call   8048870 <gethostbyname@plt>
 804945b:	83 c4 10             	add    $0x10,%esp
 804945e:	85 c0                	test   %eax,%eax
 8049460:	0f 84 40 01 00 00    	je     80495a6 <submitr+0x1c7>
 8049466:	8d 5c 24 30          	lea    0x30(%esp),%ebx
 804946a:	c7 44 24 30 00 00 00 	movl   $0x0,0x30(%esp)
 8049471:	00 
 8049472:	c7 44 24 34 00 00 00 	movl   $0x0,0x34(%esp)
 8049479:	00 
 804947a:	c7 44 24 38 00 00 00 	movl   $0x0,0x38(%esp)
 8049481:	00 
 8049482:	c7 44 24 3c 00 00 00 	movl   $0x0,0x3c(%esp)
 8049489:	00 
 804948a:	66 c7 44 24 30 02 00 	movw   $0x2,0x30(%esp)
 8049491:	6a 0c                	push   $0xc
 8049493:	ff 70 0c             	pushl  0xc(%eax)
 8049496:	8b 40 10             	mov    0x10(%eax),%eax
 8049499:	ff 30                	pushl  (%eax)
 804949b:	8d 44 24 40          	lea    0x40(%esp),%eax
 804949f:	50                   	push   %eax
 80494a0:	e8 2b f3 ff ff       	call   80487d0 <__memmove_chk@plt>
 80494a5:	0f b7 84 24 84 a0 00 	movzwl 0xa084(%esp),%eax
 80494ac:	00 
 80494ad:	66 c1 c8 08          	ror    $0x8,%ax
 80494b1:	66 89 44 24 42       	mov    %ax,0x42(%esp)
 80494b6:	83 c4 0c             	add    $0xc,%esp
 80494b9:	6a 10                	push   $0x10
 80494bb:	53                   	push   %ebx
 80494bc:	55                   	push   %ebp
 80494bd:	e8 ce f3 ff ff       	call   8048890 <connect@plt>
 80494c2:	83 c4 10             	add    $0x10,%esp
 80494c5:	85 c0                	test   %eax,%eax
 80494c7:	0f 88 49 01 00 00    	js     8049616 <submitr+0x237>
 80494cd:	ba ff ff ff ff       	mov    $0xffffffff,%edx
 80494d2:	b8 00 00 00 00       	mov    $0x0,%eax
 80494d7:	89 d1                	mov    %edx,%ecx
 80494d9:	89 f7                	mov    %esi,%edi
 80494db:	f2 ae                	repnz scas %es:(%edi),%al
 80494dd:	89 cb                	mov    %ecx,%ebx
 80494df:	f7 d3                	not    %ebx
 80494e1:	89 d1                	mov    %edx,%ecx
 80494e3:	8b 7c 24 08          	mov    0x8(%esp),%edi
 80494e7:	f2 ae                	repnz scas %es:(%edi),%al
 80494e9:	89 4c 24 18          	mov    %ecx,0x18(%esp)
 80494ed:	89 d1                	mov    %edx,%ecx
 80494ef:	8b 7c 24 0c          	mov    0xc(%esp),%edi
 80494f3:	f2 ae                	repnz scas %es:(%edi),%al
 80494f5:	89 cf                	mov    %ecx,%edi
 80494f7:	f7 d7                	not    %edi
 80494f9:	89 7c 24 1c          	mov    %edi,0x1c(%esp)
 80494fd:	89 d1                	mov    %edx,%ecx
 80494ff:	8b 7c 24 10          	mov    0x10(%esp),%edi
 8049503:	f2 ae                	repnz scas %es:(%edi),%al
 8049505:	8b 54 24 1c          	mov    0x1c(%esp),%edx
 8049509:	2b 54 24 18          	sub    0x18(%esp),%edx
 804950d:	29 ca                	sub    %ecx,%edx
 804950f:	8d 44 5b fd          	lea    -0x3(%ebx,%ebx,2),%eax
 8049513:	8d 44 02 7b          	lea    0x7b(%edx,%eax,1),%eax
 8049517:	3d 00 20 00 00       	cmp    $0x2000,%eax
 804951c:	0f 87 56 01 00 00    	ja     8049678 <submitr+0x299>
 8049522:	8d 94 24 4c 40 00 00 	lea    0x404c(%esp),%edx
 8049529:	b9 00 08 00 00       	mov    $0x800,%ecx
 804952e:	b8 00 00 00 00       	mov    $0x0,%eax
 8049533:	89 d7                	mov    %edx,%edi
 8049535:	f3 ab                	rep stos %eax,%es:(%edi)
 8049537:	b9 ff ff ff ff       	mov    $0xffffffff,%ecx
 804953c:	89 f7                	mov    %esi,%edi
 804953e:	f2 ae                	repnz scas %es:(%edi),%al
 8049540:	f7 d1                	not    %ecx
 8049542:	89 cb                	mov    %ecx,%ebx
 8049544:	83 eb 01             	sub    $0x1,%ebx
 8049547:	0f 84 07 06 00 00    	je     8049b54 <submitr+0x775>
 804954d:	89 d7                	mov    %edx,%edi
 804954f:	e9 b0 01 00 00       	jmp    8049704 <submitr+0x325>
 8049554:	8b 44 24 14          	mov    0x14(%esp),%eax
 8049558:	c7 00 45 72 72 6f    	movl   $0x6f727245,(%eax)
 804955e:	c7 40 04 72 3a 20 43 	movl   $0x43203a72,0x4(%eax)
 8049565:	c7 40 08 6c 69 65 6e 	movl   $0x6e65696c,0x8(%eax)
 804956c:	c7 40 0c 74 20 75 6e 	movl   $0x6e752074,0xc(%eax)
 8049573:	c7 40 10 61 62 6c 65 	movl   $0x656c6261,0x10(%eax)
 804957a:	c7 40 14 20 74 6f 20 	movl   $0x206f7420,0x14(%eax)
 8049581:	c7 40 18 63 72 65 61 	movl   $0x61657263,0x18(%eax)
 8049588:	c7 40 1c 74 65 20 73 	movl   $0x73206574,0x1c(%eax)
 804958f:	c7 40 20 6f 63 6b 65 	movl   $0x656b636f,0x20(%eax)
 8049596:	66 c7 40 24 74 00    	movw   $0x74,0x24(%eax)
 804959c:	b8 ff ff ff ff       	mov    $0xffffffff,%eax
 80495a1:	e9 d0 04 00 00       	jmp    8049a76 <submitr+0x697>
 80495a6:	8b 44 24 14          	mov    0x14(%esp),%eax
 80495aa:	c7 00 45 72 72 6f    	movl   $0x6f727245,(%eax)
 80495b0:	c7 40 04 72 3a 20 44 	movl   $0x44203a72,0x4(%eax)
 80495b7:	c7 40 08 4e 53 20 69 	movl   $0x6920534e,0x8(%eax)
 80495be:	c7 40 0c 73 20 75 6e 	movl   $0x6e752073,0xc(%eax)
 80495c5:	c7 40 10 61 62 6c 65 	movl   $0x656c6261,0x10(%eax)
 80495cc:	c7 40 14 20 74 6f 20 	movl   $0x206f7420,0x14(%eax)
 80495d3:	c7 40 18 72 65 73 6f 	movl   $0x6f736572,0x18(%eax)
 80495da:	c7 40 1c 6c 76 65 20 	movl   $0x2065766c,0x1c(%eax)
 80495e1:	c7 40 20 73 65 72 76 	movl   $0x76726573,0x20(%eax)
 80495e8:	c7 40 24 65 72 20 61 	movl   $0x61207265,0x24(%eax)
 80495ef:	c7 40 28 64 64 72 65 	movl   $0x65726464,0x28(%eax)
 80495f6:	66 c7 40 2c 73 73    	movw   $0x7373,0x2c(%eax)
 80495fc:	c6 40 2e 00          	movb   $0x0,0x2e(%eax)
 8049600:	83 ec 0c             	sub    $0xc,%esp
 8049603:	55                   	push   %ebp
 8049604:	e8 97 f2 ff ff       	call   80488a0 <close@plt>
 8049609:	83 c4 10             	add    $0x10,%esp
 804960c:	b8 ff ff ff ff       	mov    $0xffffffff,%eax
 8049611:	e9 60 04 00 00       	jmp    8049a76 <submitr+0x697>
 8049616:	8b 44 24 14          	mov    0x14(%esp),%eax
 804961a:	c7 00 45 72 72 6f    	movl   $0x6f727245,(%eax)
 8049620:	c7 40 04 72 3a 20 55 	movl   $0x55203a72,0x4(%eax)
 8049627:	c7 40 08 6e 61 62 6c 	movl   $0x6c62616e,0x8(%eax)
 804962e:	c7 40 0c 65 20 74 6f 	movl   $0x6f742065,0xc(%eax)
 8049635:	c7 40 10 20 63 6f 6e 	movl   $0x6e6f6320,0x10(%eax)
 804963c:	c7 40 14 6e 65 63 74 	movl   $0x7463656e,0x14(%eax)
 8049643:	c7 40 18 20 74 6f 20 	movl   $0x206f7420,0x18(%eax)
 804964a:	c7 40 1c 74 68 65 20 	movl   $0x20656874,0x1c(%eax)
 8049651:	c7 40 20 73 65 72 76 	movl   $0x76726573,0x20(%eax)
 8049658:	66 c7 40 24 65 72    	movw   $0x7265,0x24(%eax)
 804965e:	c6 40 26 00          	movb   $0x0,0x26(%eax)
 8049662:	83 ec 0c             	sub    $0xc,%esp
 8049665:	55                   	push   %ebp
 8049666:	e8 35 f2 ff ff       	call   80488a0 <close@plt>
 804966b:	83 c4 10             	add    $0x10,%esp
 804966e:	b8 ff ff ff ff       	mov    $0xffffffff,%eax
 8049673:	e9 fe 03 00 00       	jmp    8049a76 <submitr+0x697>
 8049678:	8b 44 24 14          	mov    0x14(%esp),%eax
 804967c:	c7 00 45 72 72 6f    	movl   $0x6f727245,(%eax)
 8049682:	c7 40 04 72 3a 20 52 	movl   $0x52203a72,0x4(%eax)
 8049689:	c7 40 08 65 73 75 6c 	movl   $0x6c757365,0x8(%eax)
 8049690:	c7 40 0c 74 20 73 74 	movl   $0x74732074,0xc(%eax)
 8049697:	c7 40 10 72 69 6e 67 	movl   $0x676e6972,0x10(%eax)
 804969e:	c7 40 14 20 74 6f 6f 	movl   $0x6f6f7420,0x14(%eax)
 80496a5:	c7 40 18 20 6c 61 72 	movl   $0x72616c20,0x18(%eax)
 80496ac:	c7 40 1c 67 65 2e 20 	movl   $0x202e6567,0x1c(%eax)
 80496b3:	c7 40 20 49 6e 63 72 	movl   $0x72636e49,0x20(%eax)
 80496ba:	c7 40 24 65 61 73 65 	movl   $0x65736165,0x24(%eax)
 80496c1:	c7 40 28 20 53 55 42 	movl   $0x42555320,0x28(%eax)
 80496c8:	c7 40 2c 4d 49 54 52 	movl   $0x5254494d,0x2c(%eax)
 80496cf:	c7 40 30 5f 4d 41 58 	movl   $0x58414d5f,0x30(%eax)
 80496d6:	c7 40 34 42 55 46 00 	movl   $0x465542,0x34(%eax)
 80496dd:	83 ec 0c             	sub    $0xc,%esp
 80496e0:	55                   	push   %ebp
 80496e1:	e8 ba f1 ff ff       	call   80488a0 <close@plt>
 80496e6:	83 c4 10             	add    $0x10,%esp
 80496e9:	b8 ff ff ff ff       	mov    $0xffffffff,%eax
 80496ee:	e9 83 03 00 00       	jmp    8049a76 <submitr+0x697>
 80496f3:	88 17                	mov    %dl,(%edi)
 80496f5:	8d 7f 01             	lea    0x1(%edi),%edi
 80496f8:	83 c6 01             	add    $0x1,%esi
 80496fb:	83 eb 01             	sub    $0x1,%ebx
 80496fe:	0f 84 50 04 00 00    	je     8049b54 <submitr+0x775>
 8049704:	0f b6 16             	movzbl (%esi),%edx
 8049707:	8d 4a d6             	lea    -0x2a(%edx),%ecx
 804970a:	b8 01 00 00 00       	mov    $0x1,%eax
 804970f:	80 f9 0f             	cmp    $0xf,%cl
 8049712:	77 0d                	ja     8049721 <submitr+0x342>
 8049714:	b8 d9 ff 00 00       	mov    $0xffd9,%eax
 8049719:	d3 e8                	shr    %cl,%eax
 804971b:	83 f0 01             	xor    $0x1,%eax
 804971e:	83 e0 01             	and    $0x1,%eax
 8049721:	80 fa 5f             	cmp    $0x5f,%dl
 8049724:	74 cd                	je     80496f3 <submitr+0x314>
 8049726:	84 c0                	test   %al,%al
 8049728:	74 c9                	je     80496f3 <submitr+0x314>
 804972a:	89 d0                	mov    %edx,%eax
 804972c:	83 e0 df             	and    $0xffffffdf,%eax
 804972f:	83 e8 41             	sub    $0x41,%eax
 8049732:	3c 19                	cmp    $0x19,%al
 8049734:	76 bd                	jbe    80496f3 <submitr+0x314>
 8049736:	80 fa 20             	cmp    $0x20,%dl
 8049739:	74 58                	je     8049793 <submitr+0x3b4>
 804973b:	8d 42 e0             	lea    -0x20(%edx),%eax
 804973e:	3c 5f                	cmp    $0x5f,%al
 8049740:	76 09                	jbe    804974b <submitr+0x36c>
 8049742:	80 fa 09             	cmp    $0x9,%dl
 8049745:	0f 85 c5 03 00 00    	jne    8049b10 <submitr+0x731>
 804974b:	83 ec 0c             	sub    $0xc,%esp
 804974e:	0f b6 d2             	movzbl %dl,%edx
 8049751:	52                   	push   %edx
 8049752:	68 b4 a3 04 08       	push   $0x804a3b4
 8049757:	6a 08                	push   $0x8
 8049759:	6a 01                	push   $0x1
 804975b:	8d 84 24 68 80 00 00 	lea    0x8068(%esp),%eax
 8049762:	50                   	push   %eax
 8049763:	e8 58 f1 ff ff       	call   80488c0 <__sprintf_chk@plt>
 8049768:	0f b6 84 24 6c 80 00 	movzbl 0x806c(%esp),%eax
 804976f:	00 
 8049770:	88 07                	mov    %al,(%edi)
 8049772:	0f b6 84 24 6d 80 00 	movzbl 0x806d(%esp),%eax
 8049779:	00 
 804977a:	88 47 01             	mov    %al,0x1(%edi)
 804977d:	0f b6 84 24 6e 80 00 	movzbl 0x806e(%esp),%eax
 8049784:	00 
 8049785:	88 47 02             	mov    %al,0x2(%edi)
 8049788:	83 c4 20             	add    $0x20,%esp
 804978b:	8d 7f 03             	lea    0x3(%edi),%edi
 804978e:	e9 65 ff ff ff       	jmp    80496f8 <submitr+0x319>
 8049793:	c6 07 2b             	movb   $0x2b,(%edi)
 8049796:	8d 7f 01             	lea    0x1(%edi),%edi
 8049799:	e9 5a ff ff ff       	jmp    80496f8 <submitr+0x319>
 804979e:	01 c6                	add    %eax,%esi
 80497a0:	29 c3                	sub    %eax,%ebx
 80497a2:	74 24                	je     80497c8 <submitr+0x3e9>
 80497a4:	83 ec 04             	sub    $0x4,%esp
 80497a7:	53                   	push   %ebx
 80497a8:	56                   	push   %esi
 80497a9:	55                   	push   %ebp
 80497aa:	e8 51 f0 ff ff       	call   8048800 <write@plt>
 80497af:	83 c4 10             	add    $0x10,%esp
 80497b2:	85 c0                	test   %eax,%eax
 80497b4:	7f e8                	jg     804979e <submitr+0x3bf>
 80497b6:	e8 75 f0 ff ff       	call   8048830 <__errno_location@plt>
 80497bb:	83 38 04             	cmpl   $0x4,(%eax)
 80497be:	0f 85 b0 00 00 00    	jne    8049874 <submitr+0x495>
 80497c4:	89 f8                	mov    %edi,%eax
 80497c6:	eb d6                	jmp    804979e <submitr+0x3bf>
 80497c8:	83 7c 24 08 00       	cmpl   $0x0,0x8(%esp)
 80497cd:	0f 88 a1 00 00 00    	js     8049874 <submitr+0x495>
 80497d3:	89 6c 24 40          	mov    %ebp,0x40(%esp)
 80497d7:	c7 44 24 44 00 00 00 	movl   $0x0,0x44(%esp)
 80497de:	00 
 80497df:	8d 44 24 4c          	lea    0x4c(%esp),%eax
 80497e3:	89 44 24 48          	mov    %eax,0x48(%esp)
 80497e7:	b9 00 20 00 00       	mov    $0x2000,%ecx
 80497ec:	8d 94 24 4c 20 00 00 	lea    0x204c(%esp),%edx
 80497f3:	8d 44 24 40          	lea    0x40(%esp),%eax
 80497f7:	e8 32 fb ff ff       	call   804932e <rio_readlineb>
 80497fc:	85 c0                	test   %eax,%eax
 80497fe:	0f 8e d6 00 00 00    	jle    80498da <submitr+0x4fb>
 8049804:	83 ec 0c             	sub    $0xc,%esp
 8049807:	8d 84 24 58 80 00 00 	lea    0x8058(%esp),%eax
 804980e:	50                   	push   %eax
 804980f:	8d 44 24 3c          	lea    0x3c(%esp),%eax
 8049813:	50                   	push   %eax
 8049814:	8d 84 24 60 60 00 00 	lea    0x6060(%esp),%eax
 804981b:	50                   	push   %eax
 804981c:	68 bb a3 04 08       	push   $0x804a3bb
 8049821:	8d 84 24 68 20 00 00 	lea    0x2068(%esp),%eax
 8049828:	50                   	push   %eax
 8049829:	e8 e2 ef ff ff       	call   8048810 <__isoc99_sscanf@plt>
 804982e:	8b 44 24 4c          	mov    0x4c(%esp),%eax
 8049832:	83 c4 20             	add    $0x20,%esp
 8049835:	3d c8 00 00 00       	cmp    $0xc8,%eax
 804983a:	0f 84 a6 01 00 00    	je     80499e6 <submitr+0x607>
 8049840:	83 ec 08             	sub    $0x8,%esp
 8049843:	8d 94 24 54 80 00 00 	lea    0x8054(%esp),%edx
 804984a:	52                   	push   %edx
 804984b:	50                   	push   %eax
 804984c:	68 cc a2 04 08       	push   $0x804a2cc
 8049851:	6a ff                	push   $0xffffffff
 8049853:	6a 01                	push   $0x1
 8049855:	ff 74 24 30          	pushl  0x30(%esp)
 8049859:	e8 62 f0 ff ff       	call   80488c0 <__sprintf_chk@plt>
 804985e:	83 c4 14             	add    $0x14,%esp
 8049861:	55                   	push   %ebp
 8049862:	e8 39 f0 ff ff       	call   80488a0 <close@plt>
 8049867:	83 c4 10             	add    $0x10,%esp
 804986a:	b8 ff ff ff ff       	mov    $0xffffffff,%eax
 804986f:	e9 02 02 00 00       	jmp    8049a76 <submitr+0x697>
 8049874:	8b 44 24 14          	mov    0x14(%esp),%eax
 8049878:	c7 00 45 72 72 6f    	movl   $0x6f727245,(%eax)
 804987e:	c7 40 04 72 3a 20 43 	movl   $0x43203a72,0x4(%eax)
 8049885:	c7 40 08 6c 69 65 6e 	movl   $0x6e65696c,0x8(%eax)
 804988c:	c7 40 0c 74 20 75 6e 	movl   $0x6e752074,0xc(%eax)
 8049893:	c7 40 10 61 62 6c 65 	movl   $0x656c6261,0x10(%eax)
 804989a:	c7 40 14 20 74 6f 20 	movl   $0x206f7420,0x14(%eax)
 80498a1:	c7 40 18 77 72 69 74 	movl   $0x74697277,0x18(%eax)
 80498a8:	c7 40 1c 65 20 74 6f 	movl   $0x6f742065,0x1c(%eax)
 80498af:	c7 40 20 20 74 68 65 	movl   $0x65687420,0x20(%eax)
 80498b6:	c7 40 24 20 73 65 72 	movl   $0x72657320,0x24(%eax)
 80498bd:	c7 40 28 76 65 72 00 	movl   $0x726576,0x28(%eax)
 80498c4:	83 ec 0c             	sub    $0xc,%esp
 80498c7:	55                   	push   %ebp
 80498c8:	e8 d3 ef ff ff       	call   80488a0 <close@plt>
 80498cd:	83 c4 10             	add    $0x10,%esp
 80498d0:	b8 ff ff ff ff       	mov    $0xffffffff,%eax
 80498d5:	e9 9c 01 00 00       	jmp    8049a76 <submitr+0x697>
 80498da:	8b 44 24 14          	mov    0x14(%esp),%eax
 80498de:	c7 00 45 72 72 6f    	movl   $0x6f727245,(%eax)
 80498e4:	c7 40 04 72 3a 20 43 	movl   $0x43203a72,0x4(%eax)
 80498eb:	c7 40 08 6c 69 65 6e 	movl   $0x6e65696c,0x8(%eax)
 80498f2:	c7 40 0c 74 20 75 6e 	movl   $0x6e752074,0xc(%eax)
 80498f9:	c7 40 10 61 62 6c 65 	movl   $0x656c6261,0x10(%eax)
 8049900:	c7 40 14 20 74 6f 20 	movl   $0x206f7420,0x14(%eax)
 8049907:	c7 40 18 72 65 61 64 	movl   $0x64616572,0x18(%eax)
 804990e:	c7 40 1c 20 66 69 72 	movl   $0x72696620,0x1c(%eax)
 8049915:	c7 40 20 73 74 20 68 	movl   $0x68207473,0x20(%eax)
 804991c:	c7 40 24 65 61 64 65 	movl   $0x65646165,0x24(%eax)
 8049923:	c7 40 28 72 20 66 72 	movl   $0x72662072,0x28(%eax)
 804992a:	c7 40 2c 6f 6d 20 73 	movl   $0x73206d6f,0x2c(%eax)
 8049931:	c7 40 30 65 72 76 65 	movl   $0x65767265,0x30(%eax)
 8049938:	66 c7 40 34 72 00    	movw   $0x72,0x34(%eax)
 804993e:	83 ec 0c             	sub    $0xc,%esp
 8049941:	55                   	push   %ebp
 8049942:	e8 59 ef ff ff       	call   80488a0 <close@plt>
 8049947:	83 c4 10             	add    $0x10,%esp
 804994a:	b8 ff ff ff ff       	mov    $0xffffffff,%eax
 804994f:	e9 22 01 00 00       	jmp    8049a76 <submitr+0x697>
 8049954:	8b 44 24 14          	mov    0x14(%esp),%eax
 8049958:	c7 00 45 72 72 6f    	movl   $0x6f727245,(%eax)
 804995e:	c7 40 04 72 3a 20 43 	movl   $0x43203a72,0x4(%eax)
 8049965:	c7 40 08 6c 69 65 6e 	movl   $0x6e65696c,0x8(%eax)
 804996c:	c7 40 0c 74 20 75 6e 	movl   $0x6e752074,0xc(%eax)
 8049973:	c7 40 10 61 62 6c 65 	movl   $0x656c6261,0x10(%eax)
 804997a:	c7 40 14 20 74 6f 20 	movl   $0x206f7420,0x14(%eax)
 8049981:	c7 40 18 72 65 61 64 	movl   $0x64616572,0x18(%eax)
 8049988:	c7 40 1c 20 68 65 61 	movl   $0x61656820,0x1c(%eax)
 804998f:	c7 40 20 64 65 72 73 	movl   $0x73726564,0x20(%eax)
 8049996:	c7 40 24 20 66 72 6f 	movl   $0x6f726620,0x24(%eax)
 804999d:	c7 40 28 6d 20 73 65 	movl   $0x6573206d,0x28(%eax)
 80499a4:	c7 40 2c 72 76 65 72 	movl   $0x72657672,0x2c(%eax)
 80499ab:	c6 40 30 00          	movb   $0x0,0x30(%eax)
 80499af:	83 ec 0c             	sub    $0xc,%esp
 80499b2:	55                   	push   %ebp
 80499b3:	e8 e8 ee ff ff       	call   80488a0 <close@plt>
 80499b8:	83 c4 10             	add    $0x10,%esp
 80499bb:	b8 ff ff ff ff       	mov    $0xffffffff,%eax
 80499c0:	e9 b1 00 00 00       	jmp    8049a76 <submitr+0x697>
 80499c5:	85 c0                	test   %eax,%eax
 80499c7:	74 4b                	je     8049a14 <submitr+0x635>
 80499c9:	b9 00 20 00 00       	mov    $0x2000,%ecx
 80499ce:	8d 94 24 4c 20 00 00 	lea    0x204c(%esp),%edx
 80499d5:	8d 44 24 40          	lea    0x40(%esp),%eax
 80499d9:	e8 50 f9 ff ff       	call   804932e <rio_readlineb>
 80499de:	85 c0                	test   %eax,%eax
 80499e0:	0f 8e 6e ff ff ff    	jle    8049954 <submitr+0x575>
 80499e6:	0f b6 94 24 4c 20 00 	movzbl 0x204c(%esp),%edx
 80499ed:	00 
 80499ee:	b8 0d 00 00 00       	mov    $0xd,%eax
 80499f3:	29 d0                	sub    %edx,%eax
 80499f5:	75 ce                	jne    80499c5 <submitr+0x5e6>
 80499f7:	0f b6 94 24 4d 20 00 	movzbl 0x204d(%esp),%edx
 80499fe:	00 
 80499ff:	b8 0a 00 00 00       	mov    $0xa,%eax
 8049a04:	29 d0                	sub    %edx,%eax
 8049a06:	75 bd                	jne    80499c5 <submitr+0x5e6>
 8049a08:	0f b6 84 24 4e 20 00 	movzbl 0x204e(%esp),%eax
 8049a0f:	00 
 8049a10:	f7 d8                	neg    %eax
 8049a12:	eb b1                	jmp    80499c5 <submitr+0x5e6>
 8049a14:	b9 00 20 00 00       	mov    $0x2000,%ecx
 8049a19:	8d 94 24 4c 20 00 00 	lea    0x204c(%esp),%edx
 8049a20:	8d 44 24 40          	lea    0x40(%esp),%eax
 8049a24:	e8 05 f9 ff ff       	call   804932e <rio_readlineb>
 8049a29:	85 c0                	test   %eax,%eax
 8049a2b:	7e 68                	jle    8049a95 <submitr+0x6b6>
 8049a2d:	83 ec 08             	sub    $0x8,%esp
 8049a30:	8d 84 24 54 20 00 00 	lea    0x2054(%esp),%eax
 8049a37:	50                   	push   %eax
 8049a38:	8b 7c 24 20          	mov    0x20(%esp),%edi
 8049a3c:	57                   	push   %edi
 8049a3d:	e8 5e ed ff ff       	call   80487a0 <strcpy@plt>
 8049a42:	89 2c 24             	mov    %ebp,(%esp)
 8049a45:	e8 56 ee ff ff       	call   80488a0 <close@plt>
 8049a4a:	0f b6 17             	movzbl (%edi),%edx
 8049a4d:	b8 4f 00 00 00       	mov    $0x4f,%eax
 8049a52:	83 c4 10             	add    $0x10,%esp
 8049a55:	29 d0                	sub    %edx,%eax
 8049a57:	75 13                	jne    8049a6c <submitr+0x68d>
 8049a59:	0f b6 57 01          	movzbl 0x1(%edi),%edx
 8049a5d:	b8 4b 00 00 00       	mov    $0x4b,%eax
 8049a62:	29 d0                	sub    %edx,%eax
 8049a64:	75 06                	jne    8049a6c <submitr+0x68d>
 8049a66:	0f b6 47 02          	movzbl 0x2(%edi),%eax
 8049a6a:	f7 d8                	neg    %eax
 8049a6c:	85 c0                	test   %eax,%eax
 8049a6e:	0f 95 c0             	setne  %al
 8049a71:	0f b6 c0             	movzbl %al,%eax
 8049a74:	f7 d8                	neg    %eax
 8049a76:	8b bc 24 4c a0 00 00 	mov    0xa04c(%esp),%edi
 8049a7d:	65 33 3d 14 00 00 00 	xor    %gs:0x14,%edi
 8049a84:	0f 85 2a 01 00 00    	jne    8049bb4 <submitr+0x7d5>
 8049a8a:	81 c4 5c a0 00 00    	add    $0xa05c,%esp
 8049a90:	5b                   	pop    %ebx
 8049a91:	5e                   	pop    %esi
 8049a92:	5f                   	pop    %edi
 8049a93:	5d                   	pop    %ebp
 8049a94:	c3                   	ret    
 8049a95:	8b 44 24 14          	mov    0x14(%esp),%eax
 8049a99:	c7 00 45 72 72 6f    	movl   $0x6f727245,(%eax)
 8049a9f:	c7 40 04 72 3a 20 43 	movl   $0x43203a72,0x4(%eax)
 8049aa6:	c7 40 08 6c 69 65 6e 	movl   $0x6e65696c,0x8(%eax)
 8049aad:	c7 40 0c 74 20 75 6e 	movl   $0x6e752074,0xc(%eax)
 8049ab4:	c7 40 10 61 62 6c 65 	movl   $0x656c6261,0x10(%eax)
 8049abb:	c7 40 14 20 74 6f 20 	movl   $0x206f7420,0x14(%eax)
 8049ac2:	c7 40 18 72 65 61 64 	movl   $0x64616572,0x18(%eax)
 8049ac9:	c7 40 1c 20 73 74 61 	movl   $0x61747320,0x1c(%eax)
 8049ad0:	c7 40 20 74 75 73 20 	movl   $0x20737574,0x20(%eax)
 8049ad7:	c7 40 24 6d 65 73 73 	movl   $0x7373656d,0x24(%eax)
 8049ade:	c7 40 28 61 67 65 20 	movl   $0x20656761,0x28(%eax)
 8049ae5:	c7 40 2c 66 72 6f 6d 	movl   $0x6d6f7266,0x2c(%eax)
 8049aec:	c7 40 30 20 73 65 72 	movl   $0x72657320,0x30(%eax)
 8049af3:	c7 40 34 76 65 72 00 	movl   $0x726576,0x34(%eax)
 8049afa:	83 ec 0c             	sub    $0xc,%esp
 8049afd:	55                   	push   %ebp
 8049afe:	e8 9d ed ff ff       	call   80488a0 <close@plt>
 8049b03:	83 c4 10             	add    $0x10,%esp
 8049b06:	b8 ff ff ff ff       	mov    $0xffffffff,%eax
 8049b0b:	e9 66 ff ff ff       	jmp    8049a76 <submitr+0x697>
 8049b10:	a1 fc a2 04 08       	mov    0x804a2fc,%eax
 8049b15:	8b 5c 24 14          	mov    0x14(%esp),%ebx
 8049b19:	89 03                	mov    %eax,(%ebx)
 8049b1b:	a1 3b a3 04 08       	mov    0x804a33b,%eax
 8049b20:	89 43 3f             	mov    %eax,0x3f(%ebx)
 8049b23:	8d 7b 04             	lea    0x4(%ebx),%edi
 8049b26:	83 e7 fc             	and    $0xfffffffc,%edi
 8049b29:	29 fb                	sub    %edi,%ebx
 8049b2b:	89 d8                	mov    %ebx,%eax
 8049b2d:	be fc a2 04 08       	mov    $0x804a2fc,%esi
 8049b32:	29 de                	sub    %ebx,%esi
 8049b34:	83 c0 43             	add    $0x43,%eax
 8049b37:	c1 e8 02             	shr    $0x2,%eax
 8049b3a:	89 c1                	mov    %eax,%ecx
 8049b3c:	f3 a5                	rep movsl %ds:(%esi),%es:(%edi)
 8049b3e:	83 ec 0c             	sub    $0xc,%esp
 8049b41:	55                   	push   %ebp
 8049b42:	e8 59 ed ff ff       	call   80488a0 <close@plt>
 8049b47:	83 c4 10             	add    $0x10,%esp
 8049b4a:	b8 ff ff ff ff       	mov    $0xffffffff,%eax
 8049b4f:	e9 22 ff ff ff       	jmp    8049a76 <submitr+0x697>
 8049b54:	8d 84 24 4c 40 00 00 	lea    0x404c(%esp),%eax
 8049b5b:	50                   	push   %eax
 8049b5c:	ff 74 24 14          	pushl  0x14(%esp)
 8049b60:	ff 74 24 14          	pushl  0x14(%esp)
 8049b64:	ff 74 24 14          	pushl  0x14(%esp)
 8049b68:	68 40 a3 04 08       	push   $0x804a340
 8049b6d:	68 00 20 00 00       	push   $0x2000
 8049b72:	6a 01                	push   $0x1
 8049b74:	8d bc 24 68 20 00 00 	lea    0x2068(%esp),%edi
 8049b7b:	57                   	push   %edi
 8049b7c:	e8 3f ed ff ff       	call   80488c0 <__sprintf_chk@plt>
 8049b81:	b8 00 00 00 00       	mov    $0x0,%eax
 8049b86:	b9 ff ff ff ff       	mov    $0xffffffff,%ecx
 8049b8b:	f2 ae                	repnz scas %es:(%edi),%al
 8049b8d:	f7 d1                	not    %ecx
 8049b8f:	8d 41 ff             	lea    -0x1(%ecx),%eax
 8049b92:	89 44 24 28          	mov    %eax,0x28(%esp)
 8049b96:	83 c4 20             	add    $0x20,%esp
 8049b99:	89 c3                	mov    %eax,%ebx
 8049b9b:	8d b4 24 4c 20 00 00 	lea    0x204c(%esp),%esi
 8049ba2:	bf 00 00 00 00       	mov    $0x0,%edi
 8049ba7:	85 c0                	test   %eax,%eax
 8049ba9:	0f 85 f5 fb ff ff    	jne    80497a4 <submitr+0x3c5>
 8049baf:	e9 1f fc ff ff       	jmp    80497d3 <submitr+0x3f4>
 8049bb4:	e8 d7 eb ff ff       	call   8048790 <__stack_chk_fail@plt>

08049bb9 <init_timeout>:
 8049bb9:	53                   	push   %ebx
 8049bba:	83 ec 08             	sub    $0x8,%esp
 8049bbd:	8b 5c 24 10          	mov    0x10(%esp),%ebx
 8049bc1:	85 db                	test   %ebx,%ebx
 8049bc3:	74 24                	je     8049be9 <init_timeout+0x30>
 8049bc5:	83 ec 08             	sub    $0x8,%esp
 8049bc8:	68 0b 93 04 08       	push   $0x804930b
 8049bcd:	6a 0e                	push   $0xe
 8049bcf:	e8 8c eb ff ff       	call   8048760 <signal@plt>
 8049bd4:	85 db                	test   %ebx,%ebx
 8049bd6:	b8 00 00 00 00       	mov    $0x0,%eax
 8049bdb:	0f 48 d8             	cmovs  %eax,%ebx
 8049bde:	89 1c 24             	mov    %ebx,(%esp)
 8049be1:	e8 9a eb ff ff       	call   8048780 <alarm@plt>
 8049be6:	83 c4 10             	add    $0x10,%esp
 8049be9:	83 c4 08             	add    $0x8,%esp
 8049bec:	5b                   	pop    %ebx
 8049bed:	c3                   	ret    

08049bee <init_driver>:
 8049bee:	57                   	push   %edi
 8049bef:	56                   	push   %esi
 8049bf0:	53                   	push   %ebx
 8049bf1:	83 ec 28             	sub    $0x28,%esp
 8049bf4:	8b 74 24 38          	mov    0x38(%esp),%esi
 8049bf8:	65 a1 14 00 00 00    	mov    %gs:0x14,%eax
 8049bfe:	89 44 24 24          	mov    %eax,0x24(%esp)
 8049c02:	31 c0                	xor    %eax,%eax
 8049c04:	6a 01                	push   $0x1
 8049c06:	6a 0d                	push   $0xd
 8049c08:	e8 53 eb ff ff       	call   8048760 <signal@plt>
 8049c0d:	83 c4 08             	add    $0x8,%esp
 8049c10:	6a 01                	push   $0x1
 8049c12:	6a 1d                	push   $0x1d
 8049c14:	e8 47 eb ff ff       	call   8048760 <signal@plt>
 8049c19:	83 c4 08             	add    $0x8,%esp
 8049c1c:	6a 01                	push   $0x1
 8049c1e:	6a 1d                	push   $0x1d
 8049c20:	e8 3b eb ff ff       	call   8048760 <signal@plt>
 8049c25:	83 c4 0c             	add    $0xc,%esp
 8049c28:	6a 00                	push   $0x0
 8049c2a:	6a 01                	push   $0x1
 8049c2c:	6a 02                	push   $0x2
 8049c2e:	e8 1d ec ff ff       	call   8048850 <socket@plt>
 8049c33:	83 c4 10             	add    $0x10,%esp
 8049c36:	85 c0                	test   %eax,%eax
 8049c38:	0f 88 a9 00 00 00    	js     8049ce7 <init_driver+0xf9>
 8049c3e:	89 c3                	mov    %eax,%ebx
 8049c40:	83 ec 0c             	sub    $0xc,%esp
 8049c43:	68 cc a3 04 08       	push   $0x804a3cc
 8049c48:	e8 23 ec ff ff       	call   8048870 <gethostbyname@plt>
 8049c4d:	83 c4 10             	add    $0x10,%esp
 8049c50:	85 c0                	test   %eax,%eax
 8049c52:	0f 84 da 00 00 00    	je     8049d32 <init_driver+0x144>
 8049c58:	8d 7c 24 0c          	lea    0xc(%esp),%edi
 8049c5c:	c7 44 24 0c 00 00 00 	movl   $0x0,0xc(%esp)
 8049c63:	00 
 8049c64:	c7 44 24 10 00 00 00 	movl   $0x0,0x10(%esp)
 8049c6b:	00 
 8049c6c:	c7 44 24 14 00 00 00 	movl   $0x0,0x14(%esp)
 8049c73:	00 
 8049c74:	c7 44 24 18 00 00 00 	movl   $0x0,0x18(%esp)
 8049c7b:	00 
 8049c7c:	66 c7 44 24 0c 02 00 	movw   $0x2,0xc(%esp)
 8049c83:	6a 0c                	push   $0xc
 8049c85:	ff 70 0c             	pushl  0xc(%eax)
 8049c88:	8b 40 10             	mov    0x10(%eax),%eax
 8049c8b:	ff 30                	pushl  (%eax)
 8049c8d:	8d 44 24 1c          	lea    0x1c(%esp),%eax
 8049c91:	50                   	push   %eax
 8049c92:	e8 39 eb ff ff       	call   80487d0 <__memmove_chk@plt>
 8049c97:	66 c7 44 24 1e 3b 6e 	movw   $0x6e3b,0x1e(%esp)
 8049c9e:	83 c4 0c             	add    $0xc,%esp
 8049ca1:	6a 10                	push   $0x10
 8049ca3:	57                   	push   %edi
 8049ca4:	53                   	push   %ebx
 8049ca5:	e8 e6 eb ff ff       	call   8048890 <connect@plt>
 8049caa:	83 c4 10             	add    $0x10,%esp
 8049cad:	85 c0                	test   %eax,%eax
 8049caf:	0f 88 e9 00 00 00    	js     8049d9e <init_driver+0x1b0>
 8049cb5:	83 ec 0c             	sub    $0xc,%esp
 8049cb8:	53                   	push   %ebx
 8049cb9:	e8 e2 eb ff ff       	call   80488a0 <close@plt>
 8049cbe:	66 c7 06 4f 4b       	movw   $0x4b4f,(%esi)
 8049cc3:	c6 46 02 00          	movb   $0x0,0x2(%esi)
 8049cc7:	83 c4 10             	add    $0x10,%esp
 8049cca:	b8 00 00 00 00       	mov    $0x0,%eax
 8049ccf:	8b 54 24 1c          	mov    0x1c(%esp),%edx
 8049cd3:	65 33 15 14 00 00 00 	xor    %gs:0x14,%edx
 8049cda:	0f 85 eb 00 00 00    	jne    8049dcb <init_driver+0x1dd>
 8049ce0:	83 c4 20             	add    $0x20,%esp
 8049ce3:	5b                   	pop    %ebx
 8049ce4:	5e                   	pop    %esi
 8049ce5:	5f                   	pop    %edi
 8049ce6:	c3                   	ret    
 8049ce7:	c7 06 45 72 72 6f    	movl   $0x6f727245,(%esi)
 8049ced:	c7 46 04 72 3a 20 43 	movl   $0x43203a72,0x4(%esi)
 8049cf4:	c7 46 08 6c 69 65 6e 	movl   $0x6e65696c,0x8(%esi)
 8049cfb:	c7 46 0c 74 20 75 6e 	movl   $0x6e752074,0xc(%esi)
 8049d02:	c7 46 10 61 62 6c 65 	movl   $0x656c6261,0x10(%esi)
 8049d09:	c7 46 14 20 74 6f 20 	movl   $0x206f7420,0x14(%esi)
 8049d10:	c7 46 18 63 72 65 61 	movl   $0x61657263,0x18(%esi)
 8049d17:	c7 46 1c 74 65 20 73 	movl   $0x73206574,0x1c(%esi)
 8049d1e:	c7 46 20 6f 63 6b 65 	movl   $0x656b636f,0x20(%esi)
 8049d25:	66 c7 46 24 74 00    	movw   $0x74,0x24(%esi)
 8049d2b:	b8 ff ff ff ff       	mov    $0xffffffff,%eax
 8049d30:	eb 9d                	jmp    8049ccf <init_driver+0xe1>
 8049d32:	c7 06 45 72 72 6f    	movl   $0x6f727245,(%esi)
 8049d38:	c7 46 04 72 3a 20 44 	movl   $0x44203a72,0x4(%esi)
 8049d3f:	c7 46 08 4e 53 20 69 	movl   $0x6920534e,0x8(%esi)
 8049d46:	c7 46 0c 73 20 75 6e 	movl   $0x6e752073,0xc(%esi)
 8049d4d:	c7 46 10 61 62 6c 65 	movl   $0x656c6261,0x10(%esi)
 8049d54:	c7 46 14 20 74 6f 20 	movl   $0x206f7420,0x14(%esi)
 8049d5b:	c7 46 18 72 65 73 6f 	movl   $0x6f736572,0x18(%esi)
 8049d62:	c7 46 1c 6c 76 65 20 	movl   $0x2065766c,0x1c(%esi)
 8049d69:	c7 46 20 73 65 72 76 	movl   $0x76726573,0x20(%esi)
 8049d70:	c7 46 24 65 72 20 61 	movl   $0x61207265,0x24(%esi)
 8049d77:	c7 46 28 64 64 72 65 	movl   $0x65726464,0x28(%esi)
 8049d7e:	66 c7 46 2c 73 73    	movw   $0x7373,0x2c(%esi)
 8049d84:	c6 46 2e 00          	movb   $0x0,0x2e(%esi)
 8049d88:	83 ec 0c             	sub    $0xc,%esp
 8049d8b:	53                   	push   %ebx
 8049d8c:	e8 0f eb ff ff       	call   80488a0 <close@plt>
 8049d91:	83 c4 10             	add    $0x10,%esp
 8049d94:	b8 ff ff ff ff       	mov    $0xffffffff,%eax
 8049d99:	e9 31 ff ff ff       	jmp    8049ccf <init_driver+0xe1>
 8049d9e:	83 ec 0c             	sub    $0xc,%esp
 8049da1:	68 cc a3 04 08       	push   $0x804a3cc
 8049da6:	68 8c a3 04 08       	push   $0x804a38c
 8049dab:	6a ff                	push   $0xffffffff
 8049dad:	6a 01                	push   $0x1
 8049daf:	56                   	push   %esi
 8049db0:	e8 0b eb ff ff       	call   80488c0 <__sprintf_chk@plt>
 8049db5:	83 c4 14             	add    $0x14,%esp
 8049db8:	53                   	push   %ebx
 8049db9:	e8 e2 ea ff ff       	call   80488a0 <close@plt>
 8049dbe:	83 c4 10             	add    $0x10,%esp
 8049dc1:	b8 ff ff ff ff       	mov    $0xffffffff,%eax
 8049dc6:	e9 04 ff ff ff       	jmp    8049ccf <init_driver+0xe1>
 8049dcb:	e8 c0 e9 ff ff       	call   8048790 <__stack_chk_fail@plt>

08049dd0 <driver_post>:
 8049dd0:	53                   	push   %ebx
 8049dd1:	83 ec 08             	sub    $0x8,%esp
 8049dd4:	8b 54 24 10          	mov    0x10(%esp),%edx
 8049dd8:	8b 44 24 18          	mov    0x18(%esp),%eax
 8049ddc:	8b 5c 24 1c          	mov    0x1c(%esp),%ebx
 8049de0:	85 c0                	test   %eax,%eax
 8049de2:	75 17                	jne    8049dfb <driver_post+0x2b>
 8049de4:	85 d2                	test   %edx,%edx
 8049de6:	74 05                	je     8049ded <driver_post+0x1d>
 8049de8:	80 3a 00             	cmpb   $0x0,(%edx)
 8049deb:	75 34                	jne    8049e21 <driver_post+0x51>
 8049ded:	66 c7 03 4f 4b       	movw   $0x4b4f,(%ebx)
 8049df2:	c6 43 02 00          	movb   $0x0,0x2(%ebx)
 8049df6:	83 c4 08             	add    $0x8,%esp
 8049df9:	5b                   	pop    %ebx
 8049dfa:	c3                   	ret    
 8049dfb:	83 ec 04             	sub    $0x4,%esp
 8049dfe:	ff 74 24 18          	pushl  0x18(%esp)
 8049e02:	68 da a3 04 08       	push   $0x804a3da
 8049e07:	6a 01                	push   $0x1
 8049e09:	e8 32 ea ff ff       	call   8048840 <__printf_chk@plt>
 8049e0e:	66 c7 03 4f 4b       	movw   $0x4b4f,(%ebx)
 8049e13:	c6 43 02 00          	movb   $0x0,0x2(%ebx)
 8049e17:	83 c4 10             	add    $0x10,%esp
 8049e1a:	b8 00 00 00 00       	mov    $0x0,%eax
 8049e1f:	eb d5                	jmp    8049df6 <driver_post+0x26>
 8049e21:	83 ec 04             	sub    $0x4,%esp
 8049e24:	53                   	push   %ebx
 8049e25:	ff 74 24 1c          	pushl  0x1c(%esp)
 8049e29:	68 f1 a3 04 08       	push   $0x804a3f1
 8049e2e:	52                   	push   %edx
 8049e2f:	68 f9 a3 04 08       	push   $0x804a3f9
 8049e34:	68 6e 3b 00 00       	push   $0x3b6e
 8049e39:	68 cc a3 04 08       	push   $0x804a3cc
 8049e3e:	e8 9c f5 ff ff       	call   80493df <submitr>
 8049e43:	83 c4 20             	add    $0x20,%esp
 8049e46:	eb ae                	jmp    8049df6 <driver_post+0x26>
 8049e48:	66 90                	xchg   %ax,%ax
 8049e4a:	66 90                	xchg   %ax,%ax
 8049e4c:	66 90                	xchg   %ax,%ax
 8049e4e:	66 90                	xchg   %ax,%ax

08049e50 <__libc_csu_init>:
 8049e50:	55                   	push   %ebp
 8049e51:	57                   	push   %edi
 8049e52:	56                   	push   %esi
 8049e53:	53                   	push   %ebx
 8049e54:	e8 b7 ea ff ff       	call   8048910 <__x86.get_pc_thunk.bx>
 8049e59:	81 c3 a7 21 00 00    	add    $0x21a7,%ebx
 8049e5f:	83 ec 0c             	sub    $0xc,%esp
 8049e62:	8b 6c 24 20          	mov    0x20(%esp),%ebp
 8049e66:	8d b3 0c ff ff ff    	lea    -0xf4(%ebx),%esi
 8049e6c:	e8 83 e8 ff ff       	call   80486f4 <_init>
 8049e71:	8d 83 08 ff ff ff    	lea    -0xf8(%ebx),%eax
 8049e77:	29 c6                	sub    %eax,%esi
 8049e79:	c1 fe 02             	sar    $0x2,%esi
 8049e7c:	85 f6                	test   %esi,%esi
 8049e7e:	74 25                	je     8049ea5 <__libc_csu_init+0x55>
 8049e80:	31 ff                	xor    %edi,%edi
 8049e82:	8d b6 00 00 00 00    	lea    0x0(%esi),%esi
 8049e88:	83 ec 04             	sub    $0x4,%esp
 8049e8b:	ff 74 24 2c          	pushl  0x2c(%esp)
 8049e8f:	ff 74 24 2c          	pushl  0x2c(%esp)
 8049e93:	55                   	push   %ebp
 8049e94:	ff 94 bb 08 ff ff ff 	call   *-0xf8(%ebx,%edi,4)
 8049e9b:	83 c7 01             	add    $0x1,%edi
 8049e9e:	83 c4 10             	add    $0x10,%esp
 8049ea1:	39 fe                	cmp    %edi,%esi
 8049ea3:	75 e3                	jne    8049e88 <__libc_csu_init+0x38>
 8049ea5:	83 c4 0c             	add    $0xc,%esp
 8049ea8:	5b                   	pop    %ebx
 8049ea9:	5e                   	pop    %esi
 8049eaa:	5f                   	pop    %edi
 8049eab:	5d                   	pop    %ebp
 8049eac:	c3                   	ret    
 8049ead:	8d 76 00             	lea    0x0(%esi),%esi

08049eb0 <__libc_csu_fini>:
 8049eb0:	f3 c3                	repz ret 

Disassembly of section .fini:

08049eb4 <_fini>:
 8049eb4:	53                   	push   %ebx
 8049eb5:	83 ec 08             	sub    $0x8,%esp
 8049eb8:	e8 53 ea ff ff       	call   8048910 <__x86.get_pc_thunk.bx>
 8049ebd:	81 c3 43 21 00 00    	add    $0x2143,%ebx
 8049ec3:	83 c4 08             	add    $0x8,%esp
 8049ec6:	5b                   	pop    %ebx
 8049ec7:	c3                   	ret    
