
bomb:     file format elf32-i386
bomb
architecture: i386, flags 0x00000112:
EXEC_P, HAS_SYMS, D_PAGED
start address 0x080488e0

Program Header:
    PHDR off    0x00000034 vaddr 0x08048034 paddr 0x08048034 align 2**2
         filesz 0x00000120 memsz 0x00000120 flags r-x
  INTERP off    0x00000154 vaddr 0x08048154 paddr 0x08048154 align 2**0
         filesz 0x00000013 memsz 0x00000013 flags r--
    LOAD off    0x00000000 vaddr 0x08048000 paddr 0x08048000 align 2**12
         filesz 0x00002d9c memsz 0x00002d9c flags r-x
    LOAD off    0x00002f08 vaddr 0x0804bf08 paddr 0x0804bf08 align 2**12
         filesz 0x00000498 memsz 0x00000b68 flags rw-
 DYNAMIC off    0x00002f14 vaddr 0x0804bf14 paddr 0x0804bf14 align 2**2
         filesz 0x000000e8 memsz 0x000000e8 flags rw-
    NOTE off    0x00000168 vaddr 0x08048168 paddr 0x08048168 align 2**2
         filesz 0x00000044 memsz 0x00000044 flags r--
EH_FRAME off    0x00002400 vaddr 0x0804a400 paddr 0x0804a400 align 2**2
         filesz 0x0000010c memsz 0x0000010c flags r--
   STACK off    0x00000000 vaddr 0x00000000 paddr 0x00000000 align 2**4
         filesz 0x00000000 memsz 0x00000000 flags rw-
   RELRO off    0x00002f08 vaddr 0x0804bf08 paddr 0x0804bf08 align 2**0
         filesz 0x000000f8 memsz 0x000000f8 flags r--

Dynamic Section:
  NEEDED               libc.so.6
  INIT                 0x080486f4
  FINI                 0x08049eb4
  INIT_ARRAY           0x0804bf08
  INIT_ARRAYSZ         0x00000004
  FINI_ARRAY           0x0804bf0c
  FINI_ARRAYSZ         0x00000004
  GNU_HASH             0x080481ac
  STRTAB               0x080483dc
  SYMTAB               0x080481dc
  STRSZ                0x00000177
  SYMENT               0x00000010
  DEBUG                0x00000000
  PLTGOT               0x0804c000
  PLTRELSZ             0x000000d0
  PLTREL               0x00000011
  JMPREL               0x08048624
  REL                  0x08048604
  RELSZ                0x00000020
  RELENT               0x00000008
  VERNEED              0x08048594
  VERNEEDNUM           0x00000001
  VERSYM               0x08048554

Version References:
  required from libc.so.6:
    0x0d696913 0x00 07 GLIBC_2.3
    0x0d696911 0x00 06 GLIBC_2.1
    0x0d696917 0x00 05 GLIBC_2.7
    0x09691974 0x00 04 GLIBC_2.3.4
    0x0d696914 0x00 03 GLIBC_2.4
    0x0d696910 0x00 02 GLIBC_2.0

Sections:
Idx Name          Size      VMA       LMA       File off  Algn
  0 .interp       00000013  08048154  08048154  00000154  2**0
                  CONTENTS, ALLOC, LOAD, READONLY, DATA
  1 .note.ABI-tag 00000020  08048168  08048168  00000168  2**2
                  CONTENTS, ALLOC, LOAD, READONLY, DATA
  2 .note.gnu.build-id 00000024  08048188  08048188  00000188  2**2
                  CONTENTS, ALLOC, LOAD, READONLY, DATA
  3 .gnu.hash     00000030  080481ac  080481ac  000001ac  2**2
                  CONTENTS, ALLOC, LOAD, READONLY, DATA
  4 .dynsym       00000200  080481dc  080481dc  000001dc  2**2
                  CONTENTS, ALLOC, LOAD, READONLY, DATA
  5 .dynstr       00000177  080483dc  080483dc  000003dc  2**0
                  CONTENTS, ALLOC, LOAD, READONLY, DATA
  6 .gnu.version  00000040  08048554  08048554  00000554  2**1
                  CONTENTS, ALLOC, LOAD, READONLY, DATA
  7 .gnu.version_r 00000070  08048594  08048594  00000594  2**2
                  CONTENTS, ALLOC, LOAD, READONLY, DATA
  8 .rel.dyn      00000020  08048604  08048604  00000604  2**2
                  CONTENTS, ALLOC, LOAD, READONLY, DATA
  9 .rel.plt      000000d0  08048624  08048624  00000624  2**2
                  CONTENTS, ALLOC, LOAD, READONLY, DATA
 10 .init         00000023  080486f4  080486f4  000006f4  2**2
                  CONTENTS, ALLOC, LOAD, READONLY, CODE
 11 .plt          000001b0  08048720  08048720  00000720  2**4
                  CONTENTS, ALLOC, LOAD, READONLY, CODE
 12 .plt.got      00000008  080488d0  080488d0  000008d0  2**3
                  CONTENTS, ALLOC, LOAD, READONLY, CODE
 13 .text         000015d2  080488e0  080488e0  000008e0  2**4
                  CONTENTS, ALLOC, LOAD, READONLY, CODE
 14 .fini         00000014  08049eb4  08049eb4  00001eb4  2**2
                  CONTENTS, ALLOC, LOAD, READONLY, CODE
 15 .rodata       0000051f  08049ee0  08049ee0  00001ee0  2**5
                  CONTENTS, ALLOC, LOAD, READONLY, DATA
 16 .eh_frame_hdr 0000010c  0804a400  0804a400  00002400  2**2
                  CONTENTS, ALLOC, LOAD, READONLY, DATA
 17 .eh_frame     00000890  0804a50c  0804a50c  0000250c  2**2
                  CONTENTS, ALLOC, LOAD, READONLY, DATA
 18 .init_array   00000004  0804bf08  0804bf08  00002f08  2**2
                  CONTENTS, ALLOC, LOAD, DATA
 19 .fini_array   00000004  0804bf0c  0804bf0c  00002f0c  2**2
                  CONTENTS, ALLOC, LOAD, DATA
 20 .jcr          00000004  0804bf10  0804bf10  00002f10  2**2
                  CONTENTS, ALLOC, LOAD, DATA
 21 .dynamic      000000e8  0804bf14  0804bf14  00002f14  2**2
                  CONTENTS, ALLOC, LOAD, DATA
 22 .got          00000004  0804bffc  0804bffc  00002ffc  2**2
                  CONTENTS, ALLOC, LOAD, DATA
 23 .got.plt      00000074  0804c000  0804c000  00003000  2**2
                  CONTENTS, ALLOC, LOAD, DATA
 24 .data         00000320  0804c080  0804c080  00003080  2**5
                  CONTENTS, ALLOC, LOAD, DATA
 25 .bss          000006d0  0804c3a0  0804c3a0  000033a0  2**5
                  ALLOC
 26 .comment      0000002d  00000000  00000000  000033a0  2**0
                  CONTENTS, READONLY
 27 .debug_aranges 00000020  00000000  00000000  000033cd  2**0
                  CONTENTS, READONLY, DEBUGGING
 28 .debug_info   00000779  00000000  00000000  000033ed  2**0
                  CONTENTS, READONLY, DEBUGGING
 29 .debug_abbrev 000001a4  00000000  00000000  00003b66  2**0
                  CONTENTS, READONLY, DEBUGGING
 30 .debug_line   0000016b  00000000  00000000  00003d0a  2**0
                  CONTENTS, READONLY, DEBUGGING
 31 .debug_str    0000035a  00000000  00000000  00003e75  2**0
                  CONTENTS, READONLY, DEBUGGING
 32 .debug_loc    00000184  00000000  00000000  000041cf  2**0
                  CONTENTS, READONLY, DEBUGGING
SYMBOL TABLE:
08048154 l    d  .interp	00000000              .interp
08048168 l    d  .note.ABI-tag	00000000              .note.ABI-tag
08048188 l    d  .note.gnu.build-id	00000000              .note.gnu.build-id
080481ac l    d  .gnu.hash	00000000              .gnu.hash
080481dc l    d  .dynsym	00000000              .dynsym
080483dc l    d  .dynstr	00000000              .dynstr
08048554 l    d  .gnu.version	00000000              .gnu.version
08048594 l    d  .gnu.version_r	00000000              .gnu.version_r
08048604 l    d  .rel.dyn	00000000              .rel.dyn
08048624 l    d  .rel.plt	00000000              .rel.plt
080486f4 l    d  .init	00000000              .init
08048720 l    d  .plt	00000000              .plt
080488d0 l    d  .plt.got	00000000              .plt.got
080488e0 l    d  .text	00000000              .text
08049eb4 l    d  .fini	00000000              .fini
08049ee0 l    d  .rodata	00000000              .rodata
0804a400 l    d  .eh_frame_hdr	00000000              .eh_frame_hdr
0804a50c l    d  .eh_frame	00000000              .eh_frame
0804bf08 l    d  .init_array	00000000              .init_array
0804bf0c l    d  .fini_array	00000000              .fini_array
0804bf10 l    d  .jcr	00000000              .jcr
0804bf14 l    d  .dynamic	00000000              .dynamic
0804bffc l    d  .got	00000000              .got
0804c000 l    d  .got.plt	00000000              .got.plt
0804c080 l    d  .data	00000000              .data
0804c3a0 l    d  .bss	00000000              .bss
00000000 l    d  .comment	00000000              .comment
00000000 l    d  .debug_aranges	00000000              .debug_aranges
00000000 l    d  .debug_info	00000000              .debug_info
00000000 l    d  .debug_abbrev	00000000              .debug_abbrev
00000000 l    d  .debug_line	00000000              .debug_line
00000000 l    d  .debug_str	00000000              .debug_str
00000000 l    d  .debug_loc	00000000              .debug_loc
00000000 l    df *ABS*	00000000              crtstuff.c
0804bf10 l     O .jcr	00000000              __JCR_LIST__
08048920 l     F .text	00000000              deregister_tm_clones
08048950 l     F .text	00000000              register_tm_clones
08048990 l     F .text	00000000              __do_global_dtors_aux
0804c3c8 l     O .bss	00000001              completed.7176
0804bf0c l     O .fini_array	00000000              __do_global_dtors_aux_fini_array_entry
080489b0 l     F .text	00000000              frame_dummy
0804bf08 l     O .init_array	00000000              __frame_dummy_init_array_entry
00000000 l    df *ABS*	00000000              bomb.c
00000000 l    df *ABS*	00000000              phases.c
0804a0a0 l     O .rodata	00000040              array.3048
00000000 l    df *ABS*	00000000              support.c
08048f7a l     F .text	0000005a              sig_handler
00000000 l    df *ABS*	00000000              driverlib.c
0804932e l     F .text	000000b1              rio_readlineb
00000000 l    df *ABS*	00000000              crtstuff.c
0804ad98 l     O .eh_frame	00000000              __FRAME_END__
0804bf10 l     O .jcr	00000000              __JCR_END__
00000000 l    df *ABS*	00000000              
0804bf0c l       .init_array	00000000              __init_array_end
0804bf14 l     O .dynamic	00000000              _DYNAMIC
0804bf08 l       .init_array	00000000              __init_array_start
0804a400 l       .eh_frame_hdr	00000000              __GNU_EH_FRAME_HDR
0804c000 l     O .got.plt	00000000              _GLOBAL_OFFSET_TABLE_
08049eb0 g     F .text	00000002              __libc_csu_fini
080490c2 g     F .text	00000045              skip
08049266 g     F .text	000000a5              phase_defused
0804c0c4 g     O .data	0000000c              n31
00000000       F *UND*	00000000              read@@GLIBC_2.0
08048910 g     F .text	00000004              .hidden __x86.get_pc_thunk.bx
0804c080  w      .data	00000000              data_start
0804c3e0 g     O .bss	00000640              input_strings
00000000       F *UND*	00000000              fflush@@GLIBC_2.0
0804c0b8 g     O .data	0000000c              n33
0804c3a0 g     O .bss	00000004              stderr@@GLIBC_2.0
00000000       F *UND*	00000000              fgets@@GLIBC_2.0
0804c3a0 g       .data	00000000              _edata
00000000       F *UND*	00000000              signal@@GLIBC_2.0
00000000       F *UND*	00000000              sleep@@GLIBC_2.0
0804c100 g     O .data	0000000c              n44
0804c124 g     O .data	0000000c              n46
0804c10c g     O .data	0000000c              n42
0804c130 g     O .data	0000000c              n48
08049eb4 g     F .fini	00000000              _fini
00000000       F *UND*	00000000              alarm@@GLIBC_2.0
00000000       F *UND*	00000000              __stack_chk_fail@@GLIBC_2.4
0804c3cc g     O .bss	00000004              num_input_strings
08048d80 g     F .text	00000048              phase_5
0804908a g     F .text	00000002              initialize_bomb_solve
0804908c g     F .text	00000036              blank_line
080493df g     F .text	000007da              submitr
08048bd4 g     F .text	000000d9              phase_3
08048b42 g     F .text	00000023              phase_1
08048fd4 g     F .text	0000001f              invalid_phase
08049bee g     F .text	000001e2              init_driver
00000000       F *UND*	00000000              strcpy@@GLIBC_2.0
0804c154 g     O .data	0000000c              node3
08049107 g     F .text	00000025              explode_bomb
0804c13c g     O .data	0000000c              node1
00000000       F *UND*	00000000              getenv@@GLIBC_2.0
0804c080 g       .data	00000000              __data_start
00000000       F *UND*	00000000              puts@@GLIBC_2.0
0804c16c g     O .data	0000000c              node5
00000000       F *UND*	00000000              __memmove_chk@@GLIBC_2.3.4
00000000  w      *UND*	00000000              __gmon_start__
00000000       F *UND*	00000000              exit@@GLIBC_2.0
08048ecb g     F .text	00000051              fun7
0804c084 g     O .data	00000000              .hidden __dso_handle
08049ee4 g     O .rodata	00000004              _IO_stdin_used
0804c0a0 g     O .data	0000000c              n22
0804c1a0 g     O .data	00000200              host_table
08048cad g     F .text	0000005a              func4
0804c088 g     O .data	0000000c              n1
00000000       F *UND*	00000000              __libc_start_main@@GLIBC_2.0
00000000       F *UND*	00000000              write@@GLIBC_2.0
08048ff3 g     F .text	0000001f              string_length
08049e50 g     F .text	0000005d              __libc_csu_init
0804c3c0 g     O .bss	00000004              stdin@@GLIBC_2.0
00000000       F *UND*	00000000              __isoc99_sscanf@@GLIBC_2.7
0804c0d0 g     O .data	0000000c              n34
00000000       F *UND*	00000000              fopen@@GLIBC_2.1
0804c0ac g     O .data	0000000c              n32
0804ca70 g       .bss	00000000              _end
00000000       F *UND*	00000000              __errno_location@@GLIBC_2.0
080488e0 g     F .text	00000000              _start
08048f1c g     F .text	0000005e              secret_phase
08049ee0 g     O .rodata	00000004              _fp_hw
0804c3d0 g     O .bss	00000004              infile
0804930b g     F .text	00000023              sigalrm_handler
08049bb9 g     F .text	00000035              init_timeout
0804c3c4 g     O .bss	00000004              stdout@@GLIBC_2.0
0804c3a0 g       .bss	00000000              __bss_start
080489db g     F .text	00000167              main
00000000       F *UND*	00000000              __printf_chk@@GLIBC_2.3.4
0804c0f4 g     O .data	0000000c              n47
0804c118 g     O .data	0000000c              n43
0804c0e8 g     O .data	0000000c              n41
08049167 g     F .text	000000ff              read_line
0804c0dc g     O .data	0000000c              n45
08049012 g     F .text	00000065              strings_not_equal
08048d07 g     F .text	00000079              phase_4
08048dc8 g     F .text	00000103              phase_6
0804ca20 g     O .bss	00000050              scratch
08049dd0 g     F .text	00000078              driver_post
08048b65 g     F .text	0000006f              phase_2
0804c184 g     O .data	00000004              bomb_id
00000000       F *UND*	00000000              socket@@GLIBC_2.0
0804c3a0 g     O .data	00000000              .hidden __TMC_END__
00000000       F *UND*	00000000              __fprintf_chk@@GLIBC_2.3.4
0804c148 g     O .data	0000000c              node2
0804c160 g     O .data	0000000c              node4
00000000       F *UND*	00000000              gethostbyname@@GLIBC_2.0
00000000       F *UND*	00000000              strtol@@GLIBC_2.0
0804c178 g     O .data	0000000c              node6
00000000       F *UND*	00000000              connect@@GLIBC_2.0
080486f4 g     F .init	00000000              _init
00000000       F *UND*	00000000              close@@GLIBC_2.0
0804912c g     F .text	0000003b              read_six_numbers
0804c094 g     O .data	0000000c              n21
08049077 g     F .text	00000013              initialize_bomb
00000000       F *UND*	00000000              __ctype_b_loc@@GLIBC_2.3
00000000       F *UND*	00000000              __sprintf_chk@@GLIBC_2.3.4


Contents of section .interp:
 8048154 2f6c6962 2f6c642d 6c696e75 782e736f  /lib/ld-linux.so
 8048164 2e3200                               .2.             
Contents of section .note.ABI-tag:
 8048168 04000000 10000000 01000000 474e5500  ............GNU.
 8048178 00000000 02000000 06000000 20000000  ............ ...
Contents of section .note.gnu.build-id:
 8048188 04000000 14000000 03000000 474e5500  ............GNU.
 8048198 452d17a8 978ef85f f8813779 9c6fdfd6  E-....._..7y.o..
 80481a8 29b3771e                             ).w.            
Contents of section .gnu.hash:
 80481ac 03000000 1c000000 01000000 05000000  ................
 80481bc 802b0222 1c000000 1d000000 00000000  .+."............
 80481cc 291d8c1c 38f28b1c ac4be3c0 67556110  )...8....K..gUa.
Contents of section .dynsym:
 80481dc 00000000 00000000 00000000 00000000  ................
 80481ec a0000000 00000000 00000000 12000000  ................
 80481fc 21000000 00000000 00000000 12000000  !...............
 804820c 89000000 00000000 00000000 12000000  ................
 804821c 5f000000 00000000 00000000 12000000  _...............
 804822c fe000000 00000000 00000000 12000000  ................
 804823c e4000000 00000000 00000000 12000000  ................
 804824c 6b000000 00000000 00000000 12000000  k...............
 804825c 28000000 00000000 00000000 12000000  (...............
 804826c d6000000 00000000 00000000 12000000  ................
 804827c 66000000 00000000 00000000 12000000  f...............
 804828c ba000000 00000000 00000000 12000000  ................
 804829c 2a010000 00000000 00000000 20000000  *........... ...
 80482ac 3c000000 00000000 00000000 12000000  <...............
 80482bc 12010000 00000000 00000000 12000000  ................
 80482cc 24010000 00000000 00000000 12000000  $...............
 80482dc 47000000 00000000 00000000 12000000  G...............
 80482ec 41000000 00000000 00000000 12000000  A...............
 80482fc 8f000000 00000000 00000000 12000000  ................
 804830c 2f000000 00000000 00000000 12000000  /...............
 804831c 1a000000 00000000 00000000 12000000  ................
 804832c a5000000 00000000 00000000 12000000  ................
 804833c ea000000 00000000 00000000 12000000  ................
 804834c 82000000 00000000 00000000 12000000  ................
 804835c 57000000 00000000 00000000 12000000  W...............
 804836c f8000000 00000000 00000000 12000000  ................
 804837c c8000000 00000000 00000000 12000000  ................
 804838c 04010000 00000000 00000000 12000000  ................
 804839c b3000000 c4c30408 04000000 11001a00  ................
 80483ac dd000000 a0c30408 04000000 11001a00  ................
 80483bc 0b000000 e49e0408 04000000 11001000  ................
 80483cc 7c000000 c0c30408 04000000 11001a00  |...............
Contents of section .dynstr:
 80483dc 006c6962 632e736f 2e36005f 494f5f73  .libc.so.6._IO_s
 80483ec 7464696e 5f757365 6400736f 636b6574  tdin_used.socket
 80483fc 0066666c 75736800 73747263 7079005f  .fflush.strcpy._
 804840c 5f707269 6e74665f 63686b00 65786974  _printf_chk.exit
 804841c 00666f70 656e005f 5f69736f 6339395f  .fopen.__isoc99_
 804842c 73736361 6e660063 6f6e6e65 63740073  sscanf.connect.s
 804843c 69676e61 6c007075 7473005f 5f737461  ignal.puts.__sta
 804844c 636b5f63 686b5f66 61696c00 73746469  ck_chk_fail.stdi
 804845c 6e007374 72746f6c 00666765 7473005f  n.strtol.fgets._
 804846c 5f657272 6e6f5f6c 6f636174 696f6e00  _errno_location.
 804847c 72656164 005f5f66 7072696e 74665f63  read.__fprintf_c
 804848c 686b0073 74646f75 74005f5f 6d656d6d  hk.stdout.__memm
 804849c 6f76655f 63686b00 5f5f6374 7970655f  ove_chk.__ctype_
 80484ac 625f6c6f 63006765 74656e76 00737464  b_loc.getenv.std
 80484bc 65727200 616c6172 6d006765 74686f73  err.alarm.gethos
 80484cc 7462796e 616d6500 636c6f73 6500736c  tbyname.close.sl
 80484dc 65657000 5f5f7370 72696e74 665f6368  eep.__sprintf_ch
 80484ec 6b005f5f 6c696263 5f737461 72745f6d  k.__libc_start_m
 80484fc 61696e00 77726974 65005f5f 676d6f6e  ain.write.__gmon
 804850c 5f737461 72745f5f 00474c49 42435f32  _start__.GLIBC_2
 804851c 2e330047 4c494243 5f322e31 00474c49  .3.GLIBC_2.1.GLI
 804852c 42435f32 2e370047 4c494243 5f322e33  BC_2.7.GLIBC_2.3
 804853c 2e340047 4c494243 5f322e34 00474c49  .4.GLIBC_2.4.GLI
 804854c 42435f32 2e3000                      BC_2.0.         
Contents of section .gnu.version:
 8048554 00000200 02000200 02000200 02000300  ................
 8048564 02000200 02000400 00000200 02000200  ................
 8048574 05000600 02000400 02000400 02000200  ................
 8048584 02000200 07000400 02000200 01000200  ................
Contents of section .gnu.version_r:
 8048594 01000600 01000000 10000000 00000000  ................
 80485a4 1369690d 00000700 39010000 10000000  .ii.....9.......
 80485b4 1169690d 00000600 43010000 10000000  .ii.....C.......
 80485c4 1769690d 00000500 4d010000 10000000  .ii.....M.......
 80485d4 74196909 00000400 57010000 10000000  t.i.....W.......
 80485e4 1469690d 00000300 63010000 10000000  .ii.....c.......
 80485f4 1069690d 00000200 6d010000 00000000  .ii.....m.......
Contents of section .rel.dyn:
 8048604 fcbf0408 060c0000 a0c30408 051d0000  ................
 8048614 c0c30408 051f0000 c4c30408 051c0000  ................
Contents of section .rel.plt:
 8048624 0cc00408 07010000 10c00408 07020000  ................
 8048634 14c00408 07030000 18c00408 07040000  ................
 8048644 1cc00408 07050000 20c00408 07060000  ........ .......
 8048654 24c00408 07070000 28c00408 07080000  $.......(.......
 8048664 2cc00408 07090000 30c00408 070a0000  ,.......0.......
 8048674 34c00408 070b0000 38c00408 070d0000  4.......8.......
 8048684 3cc00408 070e0000 40c00408 070f0000  <.......@.......
 8048694 44c00408 07100000 48c00408 07110000  D.......H.......
 80486a4 4cc00408 07120000 50c00408 07130000  L.......P.......
 80486b4 54c00408 07140000 58c00408 07150000  T.......X.......
 80486c4 5cc00408 07160000 60c00408 07170000  \.......`.......
 80486d4 64c00408 07180000 68c00408 07190000  d.......h.......
 80486e4 6cc00408 071a0000 70c00408 071b0000  l.......p.......
Contents of section .init:
 80486f4 5383ec08 e8130200 0081c303 3900008b  S...........9...
 8048704 83fcffff ff85c074 05e8be01 000083c4  .......t........
 8048714 085bc3                               .[.             
Contents of section .plt:
 8048720 ff3504c0 0408ff25 08c00408 00000000  .5.....%........
 8048730 ff250cc0 04086800 000000e9 e0ffffff  .%....h.........
 8048740 ff2510c0 04086808 000000e9 d0ffffff  .%....h.........
 8048750 ff2514c0 04086810 000000e9 c0ffffff  .%....h.........
 8048760 ff2518c0 04086818 000000e9 b0ffffff  .%....h.........
 8048770 ff251cc0 04086820 000000e9 a0ffffff  .%....h ........
 8048780 ff2520c0 04086828 000000e9 90ffffff  .% ...h(........
 8048790 ff2524c0 04086830 000000e9 80ffffff  .%$...h0........
 80487a0 ff2528c0 04086838 000000e9 70ffffff  .%(...h8....p...
 80487b0 ff252cc0 04086840 000000e9 60ffffff  .%,...h@....`...
 80487c0 ff2530c0 04086848 000000e9 50ffffff  .%0...hH....P...
 80487d0 ff2534c0 04086850 000000e9 40ffffff  .%4...hP....@...
 80487e0 ff2538c0 04086858 000000e9 30ffffff  .%8...hX....0...
 80487f0 ff253cc0 04086860 000000e9 20ffffff  .%<...h`.... ...
 8048800 ff2540c0 04086868 000000e9 10ffffff  .%@...hh........
 8048810 ff2544c0 04086870 000000e9 00ffffff  .%D...hp........
 8048820 ff2548c0 04086878 000000e9 f0feffff  .%H...hx........
 8048830 ff254cc0 04086880 000000e9 e0feffff  .%L...h.........
 8048840 ff2550c0 04086888 000000e9 d0feffff  .%P...h.........
 8048850 ff2554c0 04086890 000000e9 c0feffff  .%T...h.........
 8048860 ff2558c0 04086898 000000e9 b0feffff  .%X...h.........
 8048870 ff255cc0 040868a0 000000e9 a0feffff  .%\...h.........
 8048880 ff2560c0 040868a8 000000e9 90feffff  .%`...h.........
 8048890 ff2564c0 040868b0 000000e9 80feffff  .%d...h.........
 80488a0 ff2568c0 040868b8 000000e9 70feffff  .%h...h.....p...
 80488b0 ff256cc0 040868c0 000000e9 60feffff  .%l...h.....`...
 80488c0 ff2570c0 040868c8 000000e9 50feffff  .%p...h.....P...
Contents of section .plt.got:
 80488d0 ff25fcbf 04086690                    .%....f.        
Contents of section .text:
 80488e0 31ed5e89 e183e4f0 50545268 b09e0408  1.^.....PTRh....
 80488f0 68509e04 08515668 db890408 e8effeff  hP...QVh........
 8048900 fff46690 66906690 66906690 66906690  ..f.f.f.f.f.f.f.
 8048910 8b1c24c3 66906690 66906690 66906690  ..$.f.f.f.f.f.f.
 8048920 b8a3c304 082da0c3 040883f8 06761ab8  .....-.......v..
 8048930 00000000 85c07411 5589e583 ec1468a0  ......t.U.....h.
 8048940 c30408ff d083c410 c9f3c390 8d742600  .............t&.
 8048950 b8a0c304 082da0c3 0408c1f8 0289c2c1  .....-..........
 8048960 ea1f01d0 d1f8741b ba000000 0085d274  ......t........t
 8048970 125589e5 83ec1050 68a0c304 08ffd283  .U.....Ph.......
 8048980 c410c9f3 c38d7426 008dbc27 00000000  ......t&...'....
 8048990 803dc8c3 04080075 135589e5 83ec08e8  .=.....u.U......
 80489a0 7cffffff c605c8c3 040801c9 f3c36690  |.............f.
 80489b0 b810bf04 088b1085 d27505eb 938d7600  .........u....v.
 80489c0 ba000000 0085d274 f25589e5 83ec1450  .......t.U.....P
 80489d0 ffd283c4 10c9e975 ffffff8d 4c240483  .......u....L$..
 80489e0 e4f0ff71 fc5589e5 53518b01 8b590483  ...q.U..SQ...Y..
 80489f0 f8010f84 01010000 83f8020f 85240100  .............$..
 8048a00 0083ec08 68e89e04 08ff7304 e80ffeff  ....h.....s.....
 8048a10 ffa3d0c3 040883c4 1085c00f 84e70000  ................
 8048a20 00e85106 000083ec 0c686c9f 0408e88d  ..Q......hl.....
 8048a30 fdffffc7 0424a89f 0408e881 fdffffe8  .....$..........
 8048a40 23070000 890424e8 f6000000 e8150800  #.....$.........
 8048a50 00c70424 d49f0408 e863fdff ffe80507  ...$.....c......
 8048a60 00008904 24e8fb00 0000e8f7 070000c7  ....$...........
 8048a70 0424219f 0408e845 fdffffe8 e7060000  .$!....E........
 8048a80 890424e8 4c010000 e8d90700 00c70424  ..$.L..........$
 8048a90 3f9f0408 e827fdff ffe8c906 00008904  ?....'..........
 8048aa0 24e86102 0000e8bb 070000c7 042400a0  $.a..........$..
 8048ab0 0408e809 fdffffe8 ab060000 890424e8  ..............$.
 8048ac0 bc020000 e89d0700 00c70424 4e9f0408  ...........$N...
 8048ad0 e8ebfcff ffe88d06 00008904 24e8e602  ............$...
 8048ae0 0000e87f 07000083 c410b800 0000008d  ................
 8048af0 65f8595b 5d8d61fc c3a1c0c3 0408a3d0  e.Y[].a.........
 8048b00 c30408e9 19ffffff ff7304ff 3368ea9e  .........s..3h..
 8048b10 04086a01 e827fdff ffc70424 08000000  ..j..'.....$....
 8048b20 e8bbfcff ff83ec04 ff336807 9f04086a  .........3h....j
 8048b30 01e80afd ffffc704 24080000 00e89efc  ........$.......
 8048b40 ffff83ec 146824a0 0408ff74 241ce8bf  .....h$....t$...
 8048b50 04000083 c41085c0 750483c4 0cc3e8a4  ........u.......
 8048b60 050000eb f5565383 ec2c65a1 14000000  .....VS..,e.....
 8048b70 89442424 31c08d44 240c50ff 74243ce8  .D$$1..D$.P.t$<.
 8048b80 a8050000 83c41083 7c240400 7507837c  ........|$..u..|
 8048b90 24080174 05e86d05 00008d5c 24048d74  $..t..m....\$..t
 8048ba0 2414eb07 83c30439 f374118b 43040303  $......9.t..C...
 8048bb0 39430874 efe84d05 0000ebe8 8b44241c  9C.t..M......D$.
 8048bc0 65330514 00000075 0683c424 5b5ec3e8  e3.....u...$[^..
 8048bd0 bcfbffff 83ec1c65 a1140000 00894424  .......e......D$
 8048be0 0c31c08d 44240850 8d442408 5068efa1  .1..D$.P.D$.Ph..
 8048bf0 0408ff74 242ce815 fcffff83 c41083f8  ...t$,..........
 8048c00 017e1683 7c240407 0f878e00 00008b44  .~..|$.........D
 8048c10 2404ff24 8580a004 08e8e904 0000ebe3  $..$............
 8048c20 b86c0300 00eb05b8 00000000 2d820200  .l..........-...
 8048c30 0005bd00 00002dc4 01000005 c4010000  ......-.........
 8048c40 2dc40100 0005c401 00002dc4 01000083  -.........-.....
 8048c50 7c240405 7f063b44 24087405 e8a60400  |$....;D$.t.....
 8048c60 008b4424 0c653305 14000000 753a83c4  ..D$.e3.....u:..
 8048c70 1cc3b800 000000eb b8b80000 0000ebb6  ................
 8048c80 b8000000 00ebb4b8 00000000 ebb2b800  ................
 8048c90 000000eb b0b80000 0000ebae e8660400  .............f..
 8048ca0 00b80000 0000eba7 e8e3faff ff565383  .............VS.
 8048cb0 ec048b44 24108b54 24148b4c 241889ce  ...D$..T$..L$...
 8048cc0 29d689f3 c1eb1f01 f3d1fb01 d339c37f  )............9..
 8048cd0 0c39c37c 1d89d883 c4045b5e c383ec04  .9.|......[^....
 8048ce0 8d4bff51 5250e8c2 ffffff83 c41001c3  .K.QRP..........
 8048cf0 ebe383ec 04518d53 015250e8 adffffff  .....Q.S.RP.....
 8048d00 83c41001 c3ebce83 ec1c65a1 14000000  ..........e.....
 8048d10 8944240c 31c08d44 2408508d 44240850  .D$.1..D$.P.D$.P
 8048d20 68efa104 08ff7424 2ce8e2fa ffff83c4  h.....t$,.......
 8048d30 1083f802 7433e8cc 03000083 ec046a0e  ....t3........j.
 8048d40 6a00ff74 2410e862 ffffff83 c41083f8  j..t$..b........
 8048d50 12741fe8 af030000 8b44240c 65330514  .t.......D$.e3..
 8048d60 00000075 1683c41c c3837c24 040e76cb  ...u......|$..v.
 8048d70 ebc4837c 24081275 daebdde8 10faffff  ...|$..u........
 8048d80 5383ec14 8b5c241c 53e86502 000083c4  S....\$.S.e.....
 8048d90 1083f806 7405e86c 03000089 d883c306  ....t..l........
 8048da0 b9000000 000fb610 83e20f03 0c95a0a0  ................
 8048db0 040883c0 0139d875 ec83f936 7405e844  .....9.u...6t..D
 8048dc0 03000083 c4085bc3 565383ec 4c65a114  ......[.VS..Le..
 8048dd0 00000089 44244431 c08d4424 1450ff74  ....D$D1..D$.P.t
 8048de0 245ce845 03000083 c410be00 000000eb  $\.E............
 8048df0 1c83c601 83fe0674 2e89f38b 449c0c39  .......t....D..9
 8048e00 44b40874 1b83c301 83fb057e ee8b44b4  D..t.......~..D.
 8048e10 0c83e801 83f80576 d8e8e902 0000ebd1  .......v........
 8048e20 e8e20200 00ebde8d 44240c8d 5c2424b9  ........D$..\$$.
 8048e30 07000000 89ca2b10 891083c0 0439c375  ......+......9.u
 8048e40 f3bb0000 000089de 8b4c9c0c b8010000  .........L......
 8048e50 00ba3cc1 040883f9 017e0a8b 520883c0  ..<......~..R...
 8048e60 0139c875 f68954b4 2483c301 83fb0675  .9.u..T.$......u
 8048e70 d58b5c24 2489d9b8 01000000 8b548424  ..\$$........T.$
 8048e80 89510883 c00189d1 83f80675 efc74208  .Q.........u..B.
 8048e90 00000000 be050000 00eb088b 5b0883ee  ............[...
 8048ea0 0174108b 43088b00 39037def e8560200  .t..C...9.}..V..
 8048eb0 00ebe88b 44243c65 33051400 00007506  ....D$<e3.....u.
 8048ec0 83c4445b 5ec3e8c5 f8ffff53 83ec088b  ..D[^......S....
 8048ed0 5424108b 4c241485 d2743a8b 1a39cb7f  T$..L$...t:..9..
 8048ee0 21b80000 000039cb 741383ec 0851ff72  !.....9.t....Q.r
 8048ef0 08e8d5ff ffff83c4 108d4400 0183c408  ..........D.....
 8048f00 5bc383ec 0851ff72 04e8bdff ffff83c4  [....Q.r........
 8048f10 1001c0eb e8b8ffff ffffebe1 5383ec08  ............S...
 8048f20 e8420200 0083ec04 6a0a6a00 50e84ef9  .B......j.j.P.N.
 8048f30 ffff89c3 8d40ff83 c4103de8 03000077  .....@....=....w
 8048f40 3283ec08 536888c0 0408e87c ffffff83  2...Sh.....|....
 8048f50 c41083f8 037405e8 ab010000 83ec0c68  .....t.........h
 8048f60 44a00408 e857f8ff ffe8f802 000083c4  D....W..........
 8048f70 185bc3e8 8f010000 ebc783ec 1868e0a0  .[...........h..
 8048f80 0408e839 f8ffffc7 04240300 0000e8dd  ...9.....$......
 8048f90 f7ffff83 c40868a2 a104086a 01e89ef8  ......h....j....
 8048fa0 ffff83c4 04ff35c4 c30408e8 90f7ffff  ......5.........
 8048fb0 c7042401 000000e8 b4f7ffff c70424aa  ..$...........$.
 8048fc0 a10408e8 f8f7ffff c7042410 000000e8  ..........$.....
 8048fd0 0cf8ffff 83ec10ff 74241468 b2a10408  ........t$.h....
 8048fe0 6a01e859 f8ffffc7 04240800 0000e8ed  j..Y.....$......
 8048ff0 f7ffff8b 54240480 3a007410 b8000000  ....T$..:.t.....
 8049000 0083c001 803c0200 75f7f3c3 b8000000  .....<..u.......
 8049010 00c35756 538b5c24 108b7424 1453e8d0  ..WVS.\$..t$.S..
 8049020 ffffff89 c7893424 e8c6ffff ff83c404  ......4$........
 8049030 ba010000 0039c774 0689d05b 5e5fc30f  .....9.t...[^_..
 8049040 b60384c0 74233a06 752683c3 0183c601  ....t#:.u&......
 8049050 0fb60384 c0740b3a 0674efba 01000000  .....t.:.t......
 8049060 ebd7ba00 000000eb d0ba0000 0000ebc9  ................
 8049070 ba010000 00ebc283 ec14687a 8f04086a  ..........hz...j
 8049080 02e8daf6 ffff83c4 1cc3f3c3 565383ec  ............VS..
 8049090 048b7424 100fb61e 84db741b e80ff8ff  ..t$......t.....
 80490a0 ff83c601 0fbedb8b 00f64458 012075e5  ..........DX. u.
 80490b0 b8000000 00eb05b8 01000000 83c4045b  ...............[
 80490c0 5ec35383 ec0883ec 04ff35d0 c304086a  ^.S.......5....j
 80490d0 50a1ccc3 04088d04 80c1e004 05e0c304  P...............
 80490e0 0850e869 f6ffff89 c383c410 85c07410  .P.i..........t.
 80490f0 83ec0c50 e893ffff ff83c410 85c075c6  ...P..........u.
 8049100 89d883c4 085bc383 ec1868c3 a10408e8  .....[....h.....
 8049110 acf6ffff c70424cc a10408e8 a0f6ffff  ......$.........
 8049120 c7042408 000000e8 b4f6ffff 83ec0c8b  ..$.............
 8049130 4424148d 5014528d 5010528d 500c528d  D$..P.R.P.R.P.R.
 8049140 5008528d 50045250 68e3a104 08ff7424  P.R.P.RPh.....t$
 8049150 2ce8baf6 ffff83c4 2083f805 7e0483c4  ,....... ...~...
 8049160 0cc3e8a0 ffffff57 5653e853 ffffff85  .......WVS.S....
 8049170 c0744b8b 15ccc304 088d1c92 c1e30481  .tK.............
 8049180 c3e0c304 08b80000 0000b9ff ffffff89  ................
 8049190 dff2aef7 d183e901 83f94e0f 8f8d0000  ..........N.....
 80491a0 008d0492 c1e004c6 8401dfc3 04080083  ................
 80491b0 c2018915 ccc30408 89d85b5e 5fc3a1c0  ..........[^_...
 80491c0 c3040839 05d0c304 08744083 ec0c6813  ...9.....t@...h.
 80491d0 a20408e8 d8f5ffff 83c41085 c07545a1  .............uE.
 80491e0 c0c30408 a3d0c304 08e8d4fe ffff85c0  ................
 80491f0 758183ec 0c68f5a1 0408e8c1 f5ffffc7  u....h..........
 8049200 04240000 0000e8d5 f5ffff83 ec0c68f5  .$............h.
 8049210 a10408e8 a8f5ffff c7042408 000000e8  ..........$.....
 8049220 bcf5ffff 83ec0c6a 00e8b2f5 ffff83ec  .......j........
 8049230 0c681ea2 0408e885 f5ffffa1 ccc30408  .h..............
 8049240 8d500189 15ccc304 086bc050 05e0c304  .P.......k.P....
 8049250 08ba39a2 0408b904 00000089 c789d6f3  ..9.............
 8049260 a5e8a1fe ffff83ec 6c65a114 00000089  ........le......
 8049270 44245c31 c0833dcc c3040806 74118b44  D$\1..=.....t..D
 8049280 245c6533 05140000 00757b83 c46cc383  $\e3.....u{..l..
 8049290 ec0c8d44 2418508d 44241850 8d442418  ...D$.P.D$.P.D$.
 80492a0 506849a2 040868d0 c40408e8 60f5ffff  PhI...h.....`...
 80492b0 83c42083 f8037412 83ec0c68 78a10408  .. ...t....hx...
 80492c0 e8fbf4ff ff83c410 ebb483ec 086852a2  .............hR.
 80492d0 04088d44 241850e8 36fdffff 83c41085  ...D$.P.6.......
 80492e0 c075d583 ec0c6818 a10408e8 d0f4ffff  .u....h.........
 80492f0 c7042440 a10408e8 c4f4ffff e81bfcff  ..$@............
 8049300 ff83c410 ebb2e885 f4ffff83 ec0c6a00  ..............j.
 8049310 68a8a204 086a01ff 35a0c304 08e83ef5  h....j..5.....>.
 8049320 ffffc704 24010000 00e8b2f4 ffff5557  ....$.........UW
 8049330 565383ec 1c83f901 767989d7 89c3894c  VS......vy.....L
 8049340 240cbd01 0000008d 700ceb0a e8dff4ff  $.......p.......
 8049350 ff833804 75668b43 0485c07f 2383ec04  ..8.uf.C....#...
 8049360 68002000 0056ff33 e8c3f3ff ff894304  h. ..V.3......C.
 8049370 83c41085 c078d585 c0744889 7308ebd6  .....x...tH.s...
 8049380 8b4b080f b61183c1 01894b08 83e80189  .K........K.....
 8049390 430483c7 018857ff 80fa0a74 0983c501  C.....W....t....
 80493a0 3b6c240c 75b0c607 0089e883 c41c5b5e  ;l$.u.........[^
 80493b0 5f5dc389 d7bd0100 0000ebea b8ffffff  _]..............
 80493c0 ffeb05b8 00000000 85c0750c 83fd0175  ..........u....u
 80493d0 d5bd0000 0000ebd1 bdffffff ffebca55  ...............U
 80493e0 57565381 ec60a000 008b9c24 74a00000  WVS..`.....$t...
 80493f0 8b84247c a0000089 44240c8b 842480a0  ..$|....D$...$..
 8049400 00008944 24108b84 2484a000 00894424  ...D$...$.....D$
 8049410 148bb424 88a00000 8b84248c a0000089  ...$......$.....
 8049420 44241865 a1140000 00898424 50a00000  D$.e.......$P...
 8049430 31c0c744 24300000 00006a00 6a016a02  1..D$0....j.j.j.
 8049440 e80bf4ff ff83c410 85c00f88 04010000  ................
 8049450 89c583ec 0c53e815 f4ffff83 c41085c0  .....S..........
 8049460 0f844001 00008d5c 2430c744 24300000  ..@....\$0.D$0..
 8049470 0000c744 24340000 0000c744 24380000  ...D$4.....D$8..
 8049480 0000c744 243c0000 000066c7 44243002  ...D$<....f.D$0.
 8049490 006a0cff 700c8b40 10ff308d 44244050  .j..p..@..0.D$@P
 80494a0 e82bf3ff ff0fb784 2484a000 0066c1c8  .+......$....f..
 80494b0 08668944 244283c4 0c6a1053 55e8cef3  .f.D$B...j.SU...
 80494c0 ffff83c4 1085c00f 88490100 00baffff  .........I......
 80494d0 ffffb800 00000089 d189f7f2 ae89cbf7  ................
 80494e0 d389d18b 7c2408f2 ae894c24 1889d18b  ....|$....L$....
 80494f0 7c240cf2 ae89cff7 d7897c24 1c89d18b  |$........|$....
 8049500 7c2410f2 ae8b5424 1c2b5424 1829ca8d  |$....T$.+T$.)..
 8049510 445bfd8d 44027b3d 00200000 0f875601  D[..D.{=. ....V.
 8049520 00008d94 244c4000 00b90008 0000b800  ....$L@.........
 8049530 00000089 d7f3abb9 ffffffff 89f7f2ae  ................
 8049540 f7d189cb 83eb010f 84070600 0089d7e9  ................
 8049550 b0010000 8b442414 c7004572 726fc740  .....D$...Erro.@
 8049560 04723a20 43c74008 6c69656e c7400c74  .r: C.@.lien.@.t
 8049570 20756ec7 40106162 6c65c740 1420746f   un.@.able.@. to
 8049580 20c74018 63726561 c7401c74 652073c7   .@.crea.@.te s.
 8049590 40206f63 6b6566c7 40247400 b8ffffff  @ ockef.@$t.....
 80495a0 ffe9d004 00008b44 2414c700 4572726f  .......D$...Erro
 80495b0 c7400472 3a2044c7 40084e53 2069c740  .@.r: D.@.NS i.@
 80495c0 0c732075 6ec74010 61626c65 c7401420  .s un.@.able.@. 
 80495d0 746f20c7 40187265 736fc740 1c6c7665  to .@.reso.@.lve
 80495e0 20c74020 73657276 c7402465 722061c7   .@ serv.@$er a.
 80495f0 40286464 726566c7 402c7373 c6402e00  @(ddref.@,ss.@..
 8049600 83ec0c55 e897f2ff ff83c410 b8ffffff  ...U............
 8049610 ffe96004 00008b44 2414c700 4572726f  ..`....D$...Erro
 8049620 c7400472 3a2055c7 40086e61 626cc740  .@.r: U.@.nabl.@
 8049630 0c652074 6fc74010 20636f6e c740146e  .e to.@. con.@.n
 8049640 656374c7 40182074 6f20c740 1c746865  ect.@. to .@.the
 8049650 20c74020 73657276 66c74024 6572c640   .@ servf.@$er.@
 8049660 260083ec 0c55e835 f2ffff83 c410b8ff  &....U.5........
 8049670 ffffffe9 fe030000 8b442414 c7004572  .........D$...Er
 8049680 726fc740 04723a20 52c74008 6573756c  ro.@.r: R.@.esul
 8049690 c7400c74 207374c7 40107269 6e67c740  .@.t st.@.ring.@
 80496a0 1420746f 6fc74018 206c6172 c7401c67  . too.@. lar.@.g
 80496b0 652e20c7 4020496e 6372c740 24656173  e. .@ Incr.@$eas
 80496c0 65c74028 20535542 c7402c4d 495452c7  e.@( SUB.@,MITR.
 80496d0 40305f4d 4158c740 34425546 0083ec0c  @0_MAX.@4BUF....
 80496e0 55e8baf1 ffff83c4 10b8ffff ffffe983  U...............
 80496f0 03000088 178d7f01 83c60183 eb010f84  ................
 8049700 50040000 0fb6168d 4ad6b801 00000080  P.......J.......
 8049710 f90f770d b8d9ff00 00d3e883 f00183e0  ..w.............
 8049720 0180fa5f 74cd84c0 74c989d0 83e0df83  ..._t...t.......
 8049730 e8413c19 76bd80fa 2074588d 42e03c5f  .A<.v... tX.B.<_
 8049740 760980fa 090f85c5 03000083 ec0c0fb6  v...............
 8049750 d25268b4 a304086a 086a018d 84246880  .Rh....j.j...$h.
 8049760 000050e8 58f1ffff 0fb68424 6c800000  ..P.X......$l...
 8049770 88070fb6 84246d80 00008847 010fb684  .....$m....G....
 8049780 246e8000 00884702 83c4208d 7f03e965  $n....G... ....e
 8049790 ffffffc6 072b8d7f 01e95aff ffff01c6  .....+....Z.....
 80497a0 29c37424 83ec0453 5655e851 f0ffff83  ).t$...SVU.Q....
 80497b0 c41085c0 7fe8e875 f0ffff83 38040f85  .......u....8...
 80497c0 b0000000 89f8ebd6 837c2408 000f88a1  .........|$.....
 80497d0 00000089 6c2440c7 44244400 0000008d  ....l$@.D$D.....
 80497e0 44244c89 442448b9 00200000 8d94244c  D$L.D$H.. ....$L
 80497f0 2000008d 442440e8 32fbffff 85c00f8e   ...D$@.2.......
 8049800 d6000000 83ec0c8d 84245880 0000508d  .........$X...P.
 8049810 44243c50 8d842460 60000050 68bba304  D$<P..$``..Ph...
 8049820 088d8424 68200000 50e8e2ef ffff8b44  ...$h ..P......D
 8049830 244c83c4 203dc800 00000f84 a6010000  $L.. =..........
 8049840 83ec088d 94245480 00005250 68cca204  .....$T...RPh...
 8049850 086aff6a 01ff7424 30e862f0 ffff83c4  .j.j..t$0.b.....
 8049860 1455e839 f0ffff83 c410b8ff ffffffe9  .U.9............
 8049870 02020000 8b442414 c7004572 726fc740  .....D$...Erro.@
 8049880 04723a20 43c74008 6c69656e c7400c74  .r: C.@.lien.@.t
 8049890 20756ec7 40106162 6c65c740 1420746f   un.@.able.@. to
 80498a0 20c74018 77726974 c7401c65 20746fc7   .@.writ.@.e to.
 80498b0 40202074 6865c740 24207365 72c74028  @  the.@$ ser.@(
 80498c0 76657200 83ec0c55 e8d3efff ff83c410  ver....U........
 80498d0 b8ffffff ffe99c01 00008b44 2414c700  ...........D$...
 80498e0 4572726f c7400472 3a2043c7 40086c69  Erro.@.r: C.@.li
 80498f0 656ec740 0c742075 6ec74010 61626c65  en.@.t un.@.able
 8049900 c7401420 746f20c7 40187265 6164c740  .@. to .@.read.@
 8049910 1c206669 72c74020 73742068 c7402465  . fir.@ st h.@$e
 8049920 616465c7 40287220 6672c740 2c6f6d20  ade.@(r fr.@,om 
 8049930 73c74030 65727665 66c74034 720083ec  s.@0ervef.@4r...
 8049940 0c55e859 efffff83 c410b8ff ffffffe9  .U.Y............
 8049950 22010000 8b442414 c7004572 726fc740  "....D$...Erro.@
 8049960 04723a20 43c74008 6c69656e c7400c74  .r: C.@.lien.@.t
 8049970 20756ec7 40106162 6c65c740 1420746f   un.@.able.@. to
 8049980 20c74018 72656164 c7401c20 686561c7   .@.read.@. hea.
 8049990 40206465 7273c740 24206672 6fc74028  @ ders.@$ fro.@(
 80499a0 6d207365 c7402c72 766572c6 40300083  m se.@,rver.@0..
 80499b0 ec0c55e8 e8eeffff 83c410b8 ffffffff  ..U.............
 80499c0 e9b10000 0085c074 4bb90020 00008d94  .......tK.. ....
 80499d0 244c2000 008d4424 40e850f9 ffff85c0  $L ...D$@.P.....
 80499e0 0f8e6eff ffff0fb6 94244c20 0000b80d  ..n......$L ....
 80499f0 00000029 d075ce0f b694244d 200000b8  ...).u....$M ...
 8049a00 0a000000 29d075bd 0fb68424 4e200000  ....).u....$N ..
 8049a10 f7d8ebb1 b9002000 008d9424 4c200000  ...... ....$L ..
 8049a20 8d442440 e805f9ff ff85c07e 6883ec08  .D$@.......~h...
 8049a30 8d842454 20000050 8b7c2420 57e85eed  ..$T ..P.|$ W.^.
 8049a40 ffff892c 24e856ee ffff0fb6 17b84f00  ...,$.V.......O.
 8049a50 000083c4 1029d075 130fb657 01b84b00  .....).u...W..K.
 8049a60 000029d0 75060fb6 4702f7d8 85c00f95  ..).u...G.......
 8049a70 c00fb6c0 f7d88bbc 244ca000 0065333d  ........$L...e3=
 8049a80 14000000 0f852a01 000081c4 5ca00000  ......*.....\...
 8049a90 5b5e5f5d c38b4424 14c70045 72726fc7  [^_]..D$...Erro.
 8049aa0 4004723a 2043c740 086c6965 6ec7400c  @.r: C.@.lien.@.
 8049ab0 7420756e c7401061 626c65c7 40142074  t un.@.able.@. t
 8049ac0 6f20c740 18726561 64c7401c 20737461  o .@.read.@. sta
 8049ad0 c7402074 757320c7 40246d65 7373c740  .@ tus .@$mess.@
 8049ae0 28616765 20c7402c 66726f6d c7403020  (age .@,from.@0 
 8049af0 736572c7 40347665 720083ec 0c55e89d  ser.@4ver....U..
 8049b00 edffff83 c410b8ff ffffffe9 66ffffff  ............f...
 8049b10 a1fca204 088b5c24 148903a1 3ba30408  ......\$....;...
 8049b20 89433f8d 7b0483e7 fc29fb89 d8befca2  .C?.{....)......
 8049b30 040829de 83c043c1 e80289c1 f3a583ec  ..)...C.........
 8049b40 0c55e859 edffff83 c410b8ff ffffffe9  .U.Y............
 8049b50 22ffffff 8d84244c 40000050 ff742414  ".....$L@..P.t$.
 8049b60 ff742414 ff742414 6840a304 08680020  .t$..t$.h@...h. 
 8049b70 00006a01 8dbc2468 20000057 e83fedff  ..j...$h ..W.?..
 8049b80 ffb80000 0000b9ff fffffff2 aef7d18d  ................
 8049b90 41ff8944 242883c4 2089c38d b4244c20  A..D$(.. ....$L 
 8049ba0 0000bf00 00000085 c00f85f5 fbffffe9  ................
 8049bb0 1ffcffff e8d7ebff ff5383ec 088b5c24  .........S....\$
 8049bc0 1085db74 2483ec08 680b9304 086a0ee8  ...t$...h....j..
 8049bd0 8cebffff 85dbb800 0000000f 48d8891c  ............H...
 8049be0 24e89aeb ffff83c4 1083c408 5bc35756  $...........[.WV
 8049bf0 5383ec28 8b742438 65a11400 00008944  S..(.t$8e......D
 8049c00 242431c0 6a016a0d e853ebff ff83c408  $$1.j.j..S......
 8049c10 6a016a1d e847ebff ff83c408 6a016a1d  j.j..G......j.j.
 8049c20 e83bebff ff83c40c 6a006a01 6a02e81d  .;......j.j.j...
 8049c30 ecffff83 c41085c0 0f88a900 000089c3  ................
 8049c40 83ec0c68 cca30408 e823ecff ff83c410  ...h.....#......
 8049c50 85c00f84 da000000 8d7c240c c744240c  .........|$..D$.
 8049c60 00000000 c7442410 00000000 c7442414  .....D$......D$.
 8049c70 00000000 c7442418 00000000 66c74424  .....D$.....f.D$
 8049c80 0c02006a 0cff700c 8b4010ff 308d4424  ...j..p..@..0.D$
 8049c90 1c50e839 ebffff66 c744241e 3b6e83c4  .P.9...f.D$.;n..
 8049ca0 0c6a1057 53e8e6eb ffff83c4 1085c00f  .j.WS...........
 8049cb0 88e90000 0083ec0c 53e8e2eb ffff66c7  ........S.....f.
 8049cc0 064f4bc6 46020083 c410b800 0000008b  .OK.F...........
 8049cd0 54241c65 33151400 00000f85 eb000000  T$.e3...........
 8049ce0 83c4205b 5e5fc3c7 06457272 6fc74604  .. [^_...Erro.F.
 8049cf0 723a2043 c746086c 69656ec7 460c7420  r: C.F.lien.F.t 
 8049d00 756ec746 1061626c 65c74614 20746f20  un.F.able.F. to 
 8049d10 c7461863 726561c7 461c7465 2073c746  .F.crea.F.te s.F
 8049d20 206f636b 6566c746 247400b8 ffffffff   ockef.F$t......
 8049d30 eb9dc706 4572726f c7460472 3a2044c7  ....Erro.F.r: D.
 8049d40 46084e53 2069c746 0c732075 6ec74610  F.NS i.F.s un.F.
 8049d50 61626c65 c7461420 746f20c7 46187265  able.F. to .F.re
 8049d60 736fc746 1c6c7665 20c74620 73657276  so.F.lve .F serv
 8049d70 c7462465 722061c7 46286464 726566c7  .F$er a.F(ddref.
 8049d80 462c7373 c6462e00 83ec0c53 e80febff  F,ss.F.....S....
 8049d90 ff83c410 b8ffffff ffe931ff ffff83ec  ..........1.....
 8049da0 0c68cca3 0408688c a304086a ff6a0156  .h....h....j.j.V
 8049db0 e80bebff ff83c414 53e8e2ea ffff83c4  ........S.......
 8049dc0 10b8ffff ffffe904 ffffffe8 c0e9ffff  ................
 8049dd0 5383ec08 8b542410 8b442418 8b5c241c  S....T$..D$..\$.
 8049de0 85c07517 85d27405 803a0075 3466c703  ..u...t..:.u4f..
 8049df0 4f4bc643 020083c4 085bc383 ec04ff74  OK.C.....[.....t
 8049e00 241868da a304086a 01e832ea ffff66c7  $.h....j..2...f.
 8049e10 034f4bc6 43020083 c410b800 000000eb  .OK.C...........
 8049e20 d583ec04 53ff7424 1c68f1a3 04085268  ....S.t$.h....Rh
 8049e30 f9a30408 686e3b00 0068cca3 0408e89c  ....hn;..h......
 8049e40 f5ffff83 c420ebae 66906690 66906690  ..... ..f.f.f.f.
 8049e50 55575653 e8b7eaff ff81c3a7 21000083  UWVS........!...
 8049e60 ec0c8b6c 24208db3 0cffffff e883e8ff  ...l$ ..........
 8049e70 ff8d8308 ffffff29 c6c1fe02 85f67425  .......)......t%
 8049e80 31ff8db6 00000000 83ec04ff 74242cff  1...........t$,.
 8049e90 74242c55 ff94bb08 ffffff83 c70183c4  t$,U............
 8049ea0 1039fe75 e383c40c 5b5e5f5d c38d7600  .9.u....[^_]..v.
 8049eb0 f3c3                                 ..              
Contents of section .fini:
 8049eb4 5383ec08 e853eaff ff81c343 21000083  S....S.....C!...
 8049ec4 c4085bc3                             ..[.            
Contents of section .rodata:
 8049ee0 03000000 01000200 72002573 3a204572  ........r.%s: Er
 8049ef0 726f723a 20436f75 6c646e27 74206f70  ror: Couldn't op
 8049f00 656e2025 730a0055 73616765 3a202573  en %s..Usage: %s
 8049f10 205b3c69 6e707574 5f66696c 653e5d0a   [<input_file>].
 8049f20 00546861 74277320 6e756d62 65722032  .That's number 2
 8049f30 2e20204b 65657020 676f696e 67210048  .  Keep going!.H
 8049f40 616c6677 61792074 68657265 2100476f  alfway there!.Go
 8049f50 6f642077 6f726b21 20204f6e 20746f20  od work!  On to 
 8049f60 74686520 6e657874 2e2e2e00 57656c63  the next....Welc
 8049f70 6f6d6520 746f206d 79206669 656e6469  ome to my fiendi
 8049f80 7368206c 6974746c 6520626f 6d622e20  sh little bomb. 
 8049f90 596f7520 68617665 20362070 68617365  You have 6 phase
 8049fa0 73207769 74680000 77686963 6820746f  s with..which to
 8049fb0 20626c6f 7720796f 75727365 6c662075   blow yourself u
 8049fc0 702e2048 61766520 61206e69 63652064  p. Have a nice d
 8049fd0 61792100 50686173 65203120 64656675  ay!.Phase 1 defu
 8049fe0 7365642e 20486f77 2061626f 75742074  sed. How about t
 8049ff0 6865206e 65787420 6f6e653f 00000000  he next one?....
 804a000 536f2079 6f752067 6f742074 68617420  So you got that 
 804a010 6f6e652e 20205472 79207468 6973206f  one.  Try this o
 804a020 6e652e00 49206361 6e207365 65205275  ne..I can see Ru
 804a030 73736961 2066726f 6d206d79 20686f75  ssia from my hou
 804a040 73652100 576f7721 20596f75 27766520  se!.Wow! You've 
 804a050 64656675 73656420 74686520 73656372  defused the secr
 804a060 65742073 74616765 21000000 00000000  et stage!.......
 804a070 00000000 00000000 00000000 00000000  ................
 804a080 208c0408 278c0408 728c0408 798c0408   ...'...r...y...
 804a090 808c0408 878c0408 8e8c0408 958c0408  ................
 804a0a0 02000000 0a000000 06000000 01000000  ................
 804a0b0 0c000000 10000000 09000000 03000000  ................
 804a0c0 04000000 07000000 0e000000 05000000  ................
 804a0d0 0b000000 08000000 0f000000 0d000000  ................
 804a0e0 536f2079 6f752074 68696e6b 20796f75  So you think you
 804a0f0 2063616e 2073746f 70207468 6520626f   can stop the bo
 804a100 6d622077 69746820 6374726c 2d632c20  mb with ctrl-c, 
 804a110 646f2079 6f753f00 43757273 65732c20  do you?.Curses, 
 804a120 796f7527 76652066 6f756e64 20746865  you've found the
 804a130 20736563 72657420 70686173 65210000   secret phase!..
 804a140 42757420 66696e64 696e6720 69742061  But finding it a
 804a150 6e642073 6f6c7669 6e672069 74206172  nd solving it ar
 804a160 65207175 69746520 64696666 6572656e  e quite differen
 804a170 742e2e2e 00000000 436f6e67 72617475  t.......Congratu
 804a180 6c617469 6f6e7321 20596f75 27766520  lations! You've 
 804a190 64656675 73656420 74686520 626f6d62  defused the bomb
 804a1a0 21005765 6c6c2e2e 2e004f4b 2e203a2d  !.Well....OK. :-
 804a1b0 2900496e 76616c69 64207068 61736525  ).Invalid phase%
 804a1c0 730a000a 424f4f4d 21212100 54686520  s...BOOM!!!.The 
 804a1d0 626f6d62 20686173 20626c6f 776e2075  bomb has blown u
 804a1e0 702e0025 64202564 20256420 25642025  p..%d %d %d %d %
 804a1f0 64202564 00457272 6f723a20 5072656d  d %d.Error: Prem
 804a200 61747572 6520454f 46206f6e 20737464  ature EOF on std
 804a210 696e0047 52414445 5f424f4d 42004572  in.GRADE_BOMB.Er
 804a220 726f723a 20496e70 7574206c 696e6520  ror: Input line 
 804a230 746f6f20 6c6f6e67 002a2a2a 7472756e  too long.***trun
 804a240 63617465 642a2a2a 00256420 25642025  cated***.%d %d %
 804a250 73004472 4576696c 00677265 61747768  s.DrEvil.greatwh
 804a260 6974652e 6963732e 63732e63 6d752e65  ite.ics.cs.cmu.e
 804a270 64750061 6e67656c 73686172 6b2e6963  du.angelshark.ic
 804a280 732e6373 2e636d75 2e656475 006d616b  s.cs.cmu.edu.mak
 804a290 6f736861 726b2e69 63732e63 732e636d  oshark.ics.cs.cm
 804a2a0 752e6564 75000000 50726f67 72616d20  u.edu...Program 
 804a2b0 74696d65 64206f75 74206166 74657220  timed out after 
 804a2c0 25642073 65636f6e 64730a00 4572726f  %d seconds..Erro
 804a2d0 723a2048 54545020 72657175 65737420  r: HTTP request 
 804a2e0 6661696c 65642077 69746820 6572726f  failed with erro
 804a2f0 72202564 3a202573 00000000 4572726f  r %d: %s....Erro
 804a300 723a2052 6573756c 74207374 72696e67  r: Result string
 804a310 20636f6e 7461696e 7320616e 20696c6c   contains an ill
 804a320 6567616c 206f7220 756e7072 696e7461  egal or unprinta
 804a330 626c6520 63686172 61637465 722e0000  ble character...
 804a340 47455420 2f25732f 7375626d 6974722e  GET /%s/submitr.
 804a350 706c2f3f 75736572 69643d25 73266c61  pl/?userid=%s&la
 804a360 623d2573 26726573 756c743d 25732673  b=%s&result=%s&s
 804a370 75626d69 743d7375 626d6974 20485454  ubmit=submit HTT
 804a380 502f312e 300d0a0d 0a000000 4572726f  P/1.0.......Erro
 804a390 723a2055 6e61626c 6520746f 20636f6e  r: Unable to con
 804a3a0 6e656374 20746f20 73657276 65722025  nect to server %
 804a3b0 73000000 25252530 32580025 73202564  s...%%%02X.%s %d
 804a3c0 20255b61 2d7a412d 7a205d00 3131342e   %[a-zA-z ].114.
 804a3d0 3231322e 38312e32 31000a41 55544f52  212.81.21..AUTOR
 804a3e0 4553554c 545f5354 52494e47 3d25730a  ESULT_STRING=%s.
 804a3f0 00626f6d 626c6162 00637361 707000    .bomblab.csapp. 
Contents of section .eh_frame_hdr:
 804a400 011b033b 08010000 20000000 20e3ffff  ...;.... ... ...
 804a410 24010000 d0e4ffff 48010000 dbe5ffff  $.......H.......
 804a420 5c010000 42e7ffff 94010000 65e7ffff  \...B.......e...
 804a430 b8010000 d4e7ffff f0010000 ade8ffff  ................
 804a440 1c020000 07e9ffff 68020000 80e9ffff  ........h.......
 804a450 a0020000 c8e9ffff c8020000 cbeaffff  ................
 804a460 00030000 1cebffff 3c030000 7aebffff  ........<...z...
 804a470 84030000 d4ebffff ac030000 f3ebffff  ................
 804a480 cc030000 12ecffff e0030000 77ecffff  ............w...
 804a490 18040000 8aecffff 38040000 8cecffff  ........8.......
 804a4a0 4c040000 c2ecffff 78040000 07edffff  L.......x.......
 804a4b0 b0040000 2cedffff c8040000 67edffff  ....,.......g...
 804a4c0 00050000 66eeffff 5c050000 0befffff  ....f...\.......
 804a4d0 b4050000 2eefffff d4050000 dfefffff  ................
 804a4e0 24060000 b9f7ffff 0c080000 eef7ffff  $...............
 804a4f0 38080000 d0f9ffff e8080000 50faffff  8...........P...
 804a500 38090000 b0faffff 84090000           8...........    
Contents of section .eh_frame:
 804a50c 14000000 00000000 017a5200 017c0801  .........zR..|..
 804a51c 1b0c0404 88010000 20000000 1c000000  ........ .......
 804a52c f4e1ffff b0010000 000e0846 0e0c4a0f  ...........F..J.
 804a53c 0b740478 003f1a3b 2a322422 10000000  .t.x.?.;*2$"....
 804a54c 40000000 80e3ffff 08000000 00000000  @...............
 804a55c 34000000 54000000 77e4ffff 67010000  4...T...w...g...
 804a56c 00440c01 00471005 02750044 0f037578  .D...G...u.D..ux
 804a57c 06100302 757c0309 010ac10c 010041c3  ....u|........A.
 804a58c 41c5430c 0404410b 20000000 8c000000  A.C...A. .......
 804a59c a6e5ffff 23000000 00430e18 450e1c44  ....#....C..E..D
 804a5ac 0e20480e 10470a0e 04410b00 34000000  . H..G...A..4...
 804a5bc b0000000 a5e5ffff 6f000000 00410e08  ........o....A..
 804a5cc 8602410e 0c830343 0e38510e 3c440e40  ..A....C.8Q.<D.@
 804a5dc 480e3002 450a0e0c 41c30e08 41c60e04  H.0.E...A...A...
 804a5ec 410b0000 28000000 e8000000 dce5ffff  A...(...........
 804a5fc d9000000 00430e20 510e2445 0e28450e  .....C. Q.$E.(E.
 804a60c 2c440e30 480e2002 730a0e04 410b0000  ,D.0H. .s...A...
 804a61c 48000000 14010000 89e6ffff 5a000000  H...........Z...
 804a62c 00410e08 8602410e 0c830343 0e10680a  .A....A....C..h.
 804a63c 0e0c41c3 0e0841c6 0e04410b 430e1444  ..A...A...A.C..D
 804a64c 0e18410e 1c410e20 480e1047 0e14410e  ..A..A. H..G..A.
 804a65c 18440e1c 410e2048 0e100000 34000000  .D..A. H....4...
 804a66c 60010000 97e6ffff 79000000 00430e20  `.......y....C. 
 804a67c 510e2445 0e28450e 2c440e30 480e204d  Q.$E.(E.,D.0H. M
 804a68c 0e24420e 28420e2c 440e3048 0e205a0a  .$B.(B.,D.0H. Z.
 804a69c 0e04410b 24000000 98010000 d8e6ffff  ..A.$...........
 804a6ac 48000000 00410e08 8302430e 1c450e20  H....A....C..E. 
 804a6bc 480e1075 0e0841c3 0e040000 34000000  H..u..A.....4...
 804a6cc c0010000 f8e6ffff 03010000 00410e08  .............A..
 804a6dc 8602410e 0c830343 0e58510e 5c440e60  ..A....C.XQ.\D.`
 804a6ec 480e5002 d90a0e0c 41c30e08 41c60e04  H.P.....A...A...
 804a6fc 410b0000 38000000 f8010000 c3e7ffff  A...8...........
 804a70c 51000000 00410e08 8302430e 105e0e18  Q....A....C..^..
 804a71c 410e1c43 0e20480e 10470a0e 0841c30e  A..C. H..G...A..
 804a72c 04410b43 0e18410e 1c430e20 480e1000  .A.C..A..C. H...
 804a73c 44000000 34020000 d8e7ffff 5e000000  D...4.......^...
 804a74c 00410e08 8302430e 10480e14 420e1842  .A....C..H..B..B
 804a75c 0e1c410e 204d0e10 4a0e1841 0e1c450e  ..A. M..J..A..E.
 804a76c 20480e10 4d0e1c45 0e204d0e 0841c30e   H..M..E. M..A..
 804a77c 04410e10 83020000 24000000 7c020000  .A......$...|...
 804a78c eee7ffff 5a000000 00430e1c 450e2054  ....Z....C..E. T
 804a79c 0e18450e 1c420e20 480e1c46 0e200000  ..E..B. H..F. ..
 804a7ac 1c000000 a4020000 20e8ffff 1f000000  ........ .......
 804a7bc 00430e14 440e1845 0e1c420e 20000000  .C..D..E..B. ...
 804a7cc 10000000 c4020000 1fe8ffff 1f000000  ................
 804a7dc 00000000 34000000 d8020000 2ae8ffff  ....4.......*...
 804a7ec 65000000 00410e08 8702410e 0c860341  e....A....A....A
 804a7fc 0e108304 490e1452 0e104c0a c30e0c41  ....I..R..L....A
 804a80c c60e0841 c70e0441 0b000000 1c000000  ...A...A........
 804a81c 10030000 57e8ffff 13000000 00430e18  ....W........C..
 804a82c 450e1c42 0e20480e 04000000 10000000  E..B. H.........
 804a83c 30030000 4ae8ffff 02000000 00000000  0...J...........
 804a84c 28000000 44030000 38e8ffff 36000000  (...D...8...6...
 804a85c 00410e08 8602410e 0c830343 0e106e0e  .A....A....C..n.
 804a86c 0c41c30e 0841c60e 04000000 34000000  .A...A......4...
 804a87c 70030000 42e8ffff 45000000 00410e08  p...B...E....A..
 804a88c 8302430e 10430e14 460e1842 0e1c510e  ..C..C..F..B..Q.
 804a89c 204a0e10 470e1c41 0e20480e 10490e08   J..G..A. H..I..
 804a8ac 41c30e04 14000000 a8030000 4fe8ffff  A...........O...
 804a8bc 25000000 00430e1c 450e2000 34000000  %....C..E. .4...
 804a8cc c0030000 5ce8ffff 3b000000 00430e10  ....\...;....C..
 804a8dc 480e1444 0e18440e 1c440e20 440e2441  H..D..D..D. D.$A
 804a8ec 0e28450e 2c440e30 480e1048 0a0e0441  .(E.,D.0H..H...A
 804a8fc 0b000000 58000000 f8030000 5fe8ffff  ....X......._...
 804a90c ff000000 00410e08 8702410e 0c860341  .....A....A....A
 804a91c 0e108304 02510ac3 0e0c41c6 0e0841c7  .....Q....A...A.
 804a92c 0e04410b 500a0e1c 450e2048 0e105a0e  ..A.P...E. H..Z.
 804a93c 1c450e20 510b430a 0e1c450e 20510b43  .E. Q.C...E. Q.C
 804a94c 0a0e1c42 0e20450b 430e1c45 0e200000  ...B. E.C..E. ..
 804a95c 54000000 54040000 02e9ffff a5000000  T...T...........
 804a96c 00430e70 650a0e04 410b430e 7c450e80  .C.pe...A.C.|E..
 804a97c 01450e84 01450e88 01450e8c 01450e90  .E...E...E...E..
 804a98c 01480e70 480e7c45 0e800148 0e70450e  .H.pH.|E...H.pE.
 804a99c 78450e7c 450e8001 480e7047 0e7c450e  xE.|E...H.pG.|E.
 804a9ac 8001590e 70000000 1c000000 ac040000  ..Y.p...........
 804a9bc 4fe9ffff 23000000 00430e10 420e1445  O...#....C..B..E
 804a9cc 0e18420e 1c460e20 4c000000 cc040000  ..B..F. L.......
 804a9dc 52e9ffff b1000000 00410e08 8502410e  R........A....A.
 804a9ec 0c870341 0e108604 410e1483 05430e30  ...A....A....C.0
 804a9fc 6b0e3445 0e38410e 3c420e40 4b0e307b  k.4E.8A.<B.@K.0{
 804aa0c 0a0e1441 c30e1041 c60e0c41 c70e0841  ...A...A...A...A
 804aa1c c50e0441 0b000000 e4010000 1c050000  ...A............
 804aa2c b3e9ffff da070000 00410e08 8502410e  .........A....A.
 804aa3c 0c870341 0e108604 410e1483 05460ef4  ...A....A....F..
 804aa4c c0020253 0ef8c002 420efcc0 02420e80  ...S....B....B..
 804aa5c c102480e f0c0024d 0efcc002 410e80c1  ..H....M....A...
 804aa6c 02480ef0 c002750e f4c00243 0ef8c002  .H....u....C....
 804aa7c 450efcc0 02450e80 c102590e f4c00242  E....E....Y....B
 804aa8c 0ef8c002 410efcc0 02410e80 c102480e  ....A....A....H.
 804aa9c f0c00203 3e010efc c002410e 80c10248  ....>.....A....H
 804aaac 0ef0c002 02590efc c002410e 80c10248  .....Y....A....H
 804aabc 0ef0c002 02720efc c002410e 80c10248  .....r....A....H
 804aacc 0ef0c002 02650efc c002440e 80c10245  .....e....D....E
 804aadc 0e84c102 420e88c1 02420e8c c102480e  ....B....B....H.
 804aaec 90c10268 0ef0c002 5c0ef4c0 02410ef8  ...h....\....A..
 804aafc c002410e fcc00241 0e80c102 480ef0c0  ..A....A....H...
 804ab0c 0202550e fcc00248 0e80c102 450e84c1  ..U....H....E...
 804ab1c 02480e88 c102450e 8cc10248 0e90c102  .H....E....H....
 804ab2c 4c0ef0c0 024e0ef8 c002480e fcc00241  L....N....H....A
 804ab3c 0e80c102 450e84c1 02420e88 c102420e  ....E....B....B.
 804ab4c 8cc10244 0e90c102 480efcc0 02410e80  ...D....H....A..
 804ab5c c102480e f0c00202 5d0efcc0 02410e80  ..H.....]....A..
 804ab6c c102480e f0c00202 710efcc0 02410e80  ..H.....q....A..
 804ab7c c102480e f0c00202 680efcc0 02410e80  ..H.....h....A..
 804ab8c c102480e f0c00202 750ef8c0 02480efc  ..H.....u....H..
 804ab9c c002450e 80c10258 0ef0c002 7b0a0e14  ..E....X....{...
 804abac 41c30e10 41c60e0c 41c70e08 41c50e04  A...A...A...A...
 804abbc 410b0268 0efcc002 410e80c1 02480ef0  A..h....A....H..
 804abcc c0027b0e fcc00241 0e80c102 480ef0c0  ..{....A....H...
 804abdc 02520ef4 c002440e f8c00244 0efcc002  .R....D....D....
 804abec 440e80c1 02450e84 c102450e 88c10242  D....E....E....B
 804abfc 0e8cc102 480e90c1 025d0ef0 c0020000  ....H....]......
 804ac0c 28000000 04070000 a5efffff 35000000  (...........5...
 804ac1c 00410e08 8302430e 104b0e18 450e1c42  .A....C..K..E..B
 804ac2c 0e205a0e 10430e08 41c30e04 ac000000  . Z..C..A.......
 804ac3c 30070000 aeefffff e2010000 00410e08  0............A..
 804ac4c 8702410e 0c860341 0e108304 430e3852  ..A....A....C.8R
 804ac5c 0e3c420e 40480e38 420e3c42 0e40480e  .<B.@H.8B.<B.@H.
 804ac6c 38420e3c 420e4048 0e34420e 38420e3c  8B.<B.@H.4B.8B.<
 804ac7c 420e4048 0e304d0e 3c450e40 480e3075  B.@H.0M.<E.@H.0u
 804ac8c 0e34430e 38450e3c 450e404f 0e34420e  .4C.8E.<E.@O.4B.
 804ac9c 38410e3c 410e4048 0e304b0e 3c410e40  8A.<A.@H.0K.<A.@
 804acac 510e3059 0a0e1041 c30e0c41 c60e0841  Q.0Y...A...A...A
 804acbc c70e0441 0b02a40e 3c410e40 480e304d  ...A....<A.@H.0M
 804accc 0e3c450e 40450e44 420e4842 0e4c410e  .<E.@E.DB.HB.LA.
 804acdc 50480e3c 410e4048 0e300000 4c000000  PH.<A.@H.0..L...
 804acec e0070000 e0f0ffff 78000000 00410e08  ........x....A..
 804acfc 8302430e 10650a0e 0841c30e 04410b43  ..C..e...A...A.C
 804ad0c 0e14440e 18450e1c 420e2051 0e104a0e  ..D..E..B. Q..J.
 804ad1c 14410e18 440e1c45 0e20410e 24450e28  .A..D..E. A.$E.(
 804ad2c 450e2c45 0e30480e 10000000 48000000  E.,E.0H.....H...
 804ad3c 30080000 10f1ffff 5d000000 00410e08  0.......]....A..
 804ad4c 8502410e 0c870341 0e108604 410e1483  ..A....A....A...
 804ad5c 054e0e20 690e2444 0e28440e 2c410e30  .N. i.$D.(D.,A.0
 804ad6c 4d0e2047 0e1441c3 0e1041c6 0e0c41c7  M. G..A...A...A.
 804ad7c 0e0841c5 0e040000 10000000 7c080000  ..A.........|...
 804ad8c 24f1ffff 02000000 00000000 00000000  $...............
Contents of section .init_array:
 804bf08 b0890408                             ....            
Contents of section .fini_array:
 804bf0c 90890408                             ....            
Contents of section .jcr:
 804bf10 00000000                             ....            
Contents of section .dynamic:
 804bf14 01000000 01000000 0c000000 f4860408  ................
 804bf24 0d000000 b49e0408 19000000 08bf0408  ................
 804bf34 1b000000 04000000 1a000000 0cbf0408  ................
 804bf44 1c000000 04000000 f5feff6f ac810408  ...........o....
 804bf54 05000000 dc830408 06000000 dc810408  ................
 804bf64 0a000000 77010000 0b000000 10000000  ....w...........
 804bf74 15000000 00000000 03000000 00c00408  ................
 804bf84 02000000 d0000000 14000000 11000000  ................
 804bf94 17000000 24860408 11000000 04860408  ....$...........
 804bfa4 12000000 20000000 13000000 08000000  .... ...........
 804bfb4 feffff6f 94850408 ffffff6f 01000000  ...o.......o....
 804bfc4 f0ffff6f 54850408 00000000 00000000  ...oT...........
 804bfd4 00000000 00000000 00000000 00000000  ................
 804bfe4 00000000 00000000 00000000 00000000  ................
 804bff4 00000000 00000000                    ........        
Contents of section .got:
 804bffc 00000000                             ....            
Contents of section .got.plt:
 804c000 14bf0408 00000000 00000000 36870408  ............6...
 804c010 46870408 56870408 66870408 76870408  F...V...f...v...
 804c020 86870408 96870408 a6870408 b6870408  ................
 804c030 c6870408 d6870408 e6870408 f6870408  ................
 804c040 06880408 16880408 26880408 36880408  ........&...6...
 804c050 46880408 56880408 66880408 76880408  F...V...f...v...
 804c060 86880408 96880408 a6880408 b6880408  ................
 804c070 c6880408                             ....            
Contents of section .data:
 804c080 00000000 00000000 24000000 94c00408  ........$.......
 804c090 a0c00408 08000000 c4c00408 acc00408  ................
 804c0a0 32000000 b8c00408 d0c00408 16000000  2...............
 804c0b0 18c10408 00c10408 2d000000 dcc00408  ........-.......
 804c0c0 24c10408 06000000 e8c00408 0cc10408  $...............
 804c0d0 6b000000 f4c00408 30c10408 28000000  k.......0...(...
 804c0e0 00000000 00000000 01000000 00000000  ................
 804c0f0 00000000 63000000 00000000 00000000  ....c...........
 804c100 23000000 00000000 00000000 07000000  #...............
 804c110 00000000 00000000 14000000 00000000  ................
 804c120 00000000 2f000000 00000000 00000000  ..../...........
 804c130 e9030000 00000000 00000000 da020000  ................
 804c140 01000000 48c10408 2a010000 02000000  ....H...*.......
 804c150 54c10408 8f020000 03000000 60c10408  T...........`...
 804c160 ef010000 04000000 6cc10408 52010000  ........l...R...
 804c170 05000000 78c10408 92020000 06000000  ....x...........
 804c180 00000000 26ec050c 00000000 00000000  ....&...........
 804c190 00000000 00000000 00000000 00000000  ................
 804c1a0 59a20408 73a20408 8da20408 00000000  Y...s...........
 804c1b0 00000000 00000000 00000000 00000000  ................
 804c1c0 00000000 00000000 00000000 00000000  ................
 804c1d0 00000000 00000000 00000000 00000000  ................
 804c1e0 00000000 00000000 00000000 00000000  ................
 804c1f0 00000000 00000000 00000000 00000000  ................
 804c200 00000000 00000000 00000000 00000000  ................
 804c210 00000000 00000000 00000000 00000000  ................
 804c220 00000000 00000000 00000000 00000000  ................
 804c230 00000000 00000000 00000000 00000000  ................
 804c240 00000000 00000000 00000000 00000000  ................
 804c250 00000000 00000000 00000000 00000000  ................
 804c260 00000000 00000000 00000000 00000000  ................
 804c270 00000000 00000000 00000000 00000000  ................
 804c280 00000000 00000000 00000000 00000000  ................
 804c290 00000000 00000000 00000000 00000000  ................
 804c2a0 00000000 00000000 00000000 00000000  ................
 804c2b0 00000000 00000000 00000000 00000000  ................
 804c2c0 00000000 00000000 00000000 00000000  ................
 804c2d0 00000000 00000000 00000000 00000000  ................
 804c2e0 00000000 00000000 00000000 00000000  ................
 804c2f0 00000000 00000000 00000000 00000000  ................
 804c300 00000000 00000000 00000000 00000000  ................
 804c310 00000000 00000000 00000000 00000000  ................
 804c320 00000000 00000000 00000000 00000000  ................
 804c330 00000000 00000000 00000000 00000000  ................
 804c340 00000000 00000000 00000000 00000000  ................
 804c350 00000000 00000000 00000000 00000000  ................
 804c360 00000000 00000000 00000000 00000000  ................
 804c370 00000000 00000000 00000000 00000000  ................
 804c380 00000000 00000000 00000000 00000000  ................
 804c390 00000000 00000000 00000000 00000000  ................
Contents of section .comment:
 0000 4743433a 20285562 756e7475 20362e33  GCC: (Ubuntu 6.3
 0010 2e302d31 32756275 6e747532 2920362e  .0-12ubuntu2) 6.
 0020 332e3020 32303137 30343036 00        3.0 20170406.   
Contents of section .debug_aranges:
 0000 1c000000 02000000 00000400 00000000  ................
 0010 db890408 67010000 00000000 00000000  ....g...........
Contents of section .debug_info:
 0000 75070000 04000000 00000401 51000000  u...........Q...
 0010 0c8b0200 00fd0100 00db8904 08670100  .............g..
 0020 00000000 00022300 000003d8 30000000  ......#.....0...
 0030 030407b0 00000003 01084f02 00000302  ..........O.....
 0040 078c0100 00030407 ab000000 03010651  ...............Q
 0050 02000003 02055d02 00000404 05696e74  ......]......int
 0060 00030805 c7000000 030807a6 00000002  ................
 0070 17010000 04376100 00000207 00000004  .....7a.........
 0080 83850000 00030405 cc000000 029e0200  ................
 0090 0004846f 00000003 0407e601 00000504  ...o............
 00a0 0604a600 00000301 06580200 0007a600  .........X......
 00b0 0000022a 02000005 30bd0000 00082602  ...*....0.....&.
 00c0 00009406 f13a0200 0009f800 000006f2  .....:..........
 00d0 5a000000 00090f00 000006f7 a0000000  Z...............
 00e0 0409eb00 000006f8 a0000000 0809a802  ................
 00f0 000006f9 a0000000 0c094b03 000006fa  ..........K.....
 0100 a0000000 10096f01 000006fb a0000000  ......o.........
 0110 1409ef01 000006fc a0000000 18094400  ..............D.
 0120 000006fd a0000000 1c09ff00 000006fe  ................
 0130 a0000000 200a9f01 00000600 01a00000  .... ...........
 0140 00240a31 03000006 0101a000 0000280a  .$.1..........(.
 0150 b6020000 060201a0 0000002c 0a460200  ...........,.F..
 0160 00060401 72020000 300a1c00 00000606  ....r...0.......
 0170 01780200 00340ae3 00000006 08015a00  .x...4........Z.
 0180 0000380a b3010000 060c015a 0000003c  ..8........Z...<
 0190 0a2d0100 00060e01 7a000000 400a0b01  .-......z...@...
 01a0 00000612 013e0000 00440a67 02000006  .....>...D.g....
 01b0 13014c00 0000460a 2a000000 0614017e  ..L...F.*......~
 01c0 02000047 0aad0100 00061801 8e020000  ...G............
 01d0 480a3101 00000621 018c0000 004c0ac9  H.1....!.....L..
 01e0 02000006 29019e00 0000540a d0020000  ....).....T.....
 01f0 062a019e 00000058 0ad70200 00062b01  .*.....X......+.
 0200 9e000000 5c0ade02 0000062c 019e0000  ....\......,....
 0210 00600ae5 02000006 2e012500 0000640a  .`........%...d.
 0220 bb010000 062f015a 00000068 0aec0200  ...../.Z...h....
 0230 00063101 94020000 6c000b1b 02000006  ..1.....l.......
 0240 96085001 00000c06 9c720200 00099802  ..P......r......
 0250 0000069d 72020000 00098601 0000069e  ....r...........
 0260 78020000 04093502 000006a2 5a000000  x.....5.....Z...
 0270 08000604 41020000 0604bd00 00000ca6  ....A...........
 0280 0000008e 0200000d 97000000 00000604  ................
 0290 3a020000 0ca60000 00a40200 000d9700  :...............
 02a0 00002700 0e610100 000fd701 0000063b  ..'..a.........;
 02b0 01a40200 000f7602 0000063c 01a40200  ......v....<....
 02c0 000f3400 0000063d 01a40200 000604ad  ..4....=........
 02d0 00000007 cd020000 10cd0200 00115b01  ..............[.
 02e0 000005aa 78020000 11d00100 0005ab78  ....x..........x
 02f0 02000011 f5020000 05ac7802 0000117d  ..........x....}
 0300 01000007 1a5a0000 000cd302 00001403  .....Z..........
 0310 00001200 07090300 00113a02 0000071b  ..........:.....
 0320 14030000 13390100 00012235 03000005  .....9...."5....
 0330 03d0c304 080604b2 00000014 46030000  ............F...
 0340 01245a00 0000db89 04086701 0000019c  .$Z.......g.....
 0350 9e050000 15410300 0001245a 00000000  .....A....$Z....
 0360 00000015 fc020000 01249e05 00004200  .........$....B.
 0370 00001692 02000001 26a00000 00620000  ........&....b..
 0380 0017a405 0000268a 04080d00 00000145  ......&........E
 0390 a7030000 18b40500 00ac0000 0019338a  ..............3.
 03a0 04080106 00000017 a4050000 338a0408  ............3...
 03b0 0c000000 0146cd03 000018b4 050000c4  .....F..........
 03c0 00000019 3f8a0408 01060000 0017a405  ....?...........
 03d0 0000518a 04080c00 0000014d f3030000  ..Q........M....
 03e0 18b40500 00dc0000 00195d8a 04080106  ..........].....
 03f0 00000017 a4050000 6f8a0408 0c000000  ........o.......
 0400 01541904 000018b4 050000f4 00000019  .T..............
 0410 7b8a0408 01060000 0017a405 00008d8a  {...............
 0420 04080c00 0000015b 3f040000 18b40500  .......[?.......
 0430 000c0100 0019998a 04080106 00000017  ................
 0440 a4050000 ab8a0408 0c000000 01616504  .............ae.
 0450 000018b4 05000024 01000019 b78a0408  .......$........
 0460 01060000 0017a405 0000c98a 04080c00  ................
 0470 00000167 8b040000 18b40500 003c0100  ...g.........<..
 0480 0019d58a 04080106 00000017 a4050000  ................
 0490 088b0408 11000000 0137b104 000018b4  .........7......
 04a0 05000054 01000019 198b0408 f2060000  ...T............
 04b0 0017a405 0000258b 04081100 0000013e  ......%........>
 04c0 d7040000 18b40500 006c0100 0019368b  .........l....6.
 04d0 0408f206 00000019 118a0408 fd060000  ................
 04e0 19268a04 08090700 0019448a 04081407  .&........D.....
 04f0 0000194c 8a04081f 07000019 518a0408  ...L........Q...
 0500 2a070000 19628a04 08140700 00196a8a  *....b........j.
 0510 04083507 0000196f 8a04082a 07000019  ..5....o...*....
 0520 808a0408 14070000 19888a04 08400700  .............@..
 0530 00198d8a 04082a07 0000199e 8a040814  ......*.........
 0540 07000019 a68a0408 4b070000 19ab8a04  ........K.......
 0550 082a0700 0019bc8a 04081407 000019c4  .*..............
 0560 8a040856 07000019 c98a0408 2a070000  ...V........*...
 0570 19da8a04 08140700 0019e28a 04086107  ..............a.
 0580 000019e7 8a04082a 07000019 258b0408  .......*....%...
 0590 6c070000 19428b04 086c0700 00000604  l....B...l......
 05a0 a0000000 1a000000 0002665a 00000003  ..........fZ....
 05b0 c1050000 1bc30200 000266d8 0200001c  ..........f.....
 05c0 001d3e9e 3c57656c 636f6d65 20746f20  ..>.<Welcome to 
 05d0 6d792066 69656e64 69736820 6c697474  my fiendish litt
 05e0 6c652062 6f6d622e 20596f75 20686176  le bomb. You hav
 05f0 65203620 70686173 65732077 6974680a  e 6 phases with.
 0600 001ecb01 0000c101 00000b00 cb010000  ................
 0610 1d2f9e2d 77686963 6820746f 20626c6f  ./.-which to blo
 0620 7720796f 75727365 6c662075 702e2048  w yourself up. H
 0630 61766520 61206e69 63652064 6179210a  ave a nice day!.
 0640 001d2c9e 2a506861 73652031 20646566  ..,.*Phase 1 def
 0650 75736564 2e20486f 77206162 6f757420  used. How about 
 0660 74686520 6e657874 206f6e65 3f0a001d  the next one?...
 0670 219e1f54 68617427 73206e75 6d626572  !..That's number
 0680 20322e20 204b6565 7020676f 696e6721   2.  Keep going!
 0690 0a001d12 9e104861 6c667761 79207468  ......Halfway th
 06a0 65726521 0a001d27 9e25536f 20796f75  ere!...'.%So you
 06b0 20676f74 20746861 74206f6e 652e2020   got that one.  
 06c0 54727920 74686973 206f6e65 2e0a001d  Try this one....
 06d0 219e1f47 6f6f6420 776f726b 2120204f  !..Good work!  O
 06e0 6e20746f 20746865 206e6578 742e2e2e  n to the next...
 06f0 0a001f20 01000020 01000002 57202f02  ... ... ....W /.
 0700 00002f02 00000512 011f4001 00004001  ../.......@...@.
 0710 00000809 1fbd0000 00bd0000 0008081f  ................
 0720 01030000 01030000 09041fd5 000000d5  ................
 0730 00000008 0c1f0903 00000903 00000905  ................
 0740 1f110300 00110300 0009061f 19030000  ................
 0750 19030000 09071f21 03000021 03000009  .......!...!....
 0760 081f2903 00002903 00000909 20860200  ..)...)..... ...
 0770 00860200 000af801 00                 .........       
Contents of section .debug_abbrev:
 0000 01110125 0e130b03 0e1b0e11 01120610  ...%............
 0010 17000002 1600030e 3a0b3b0b 49130000  ........:.;.I...
 0020 0324000b 0b3e0b03 0e000004 24000b0b  .$...>......$...
 0030 3e0b0308 0000050f 000b0b00 00060f00  >...............
 0040 0b0b4913 00000726 00491300 00081301  ..I....&.I......
 0050 030e0b0b 3a0b3b0b 01130000 090d0003  ....:.;.........
 0060 0e3a0b3b 0b491338 0b00000a 0d00030e  .:.;.I.8........
 0070 3a0b3b05 4913380b 00000b16 00030e3a  :.;.I.8........:
 0080 0b3b0b00 000c0101 49130113 00000d21  .;......I......!
 0090 0049132f 0b00000e 1300030e 3c190000  .I./........<...
 00a0 0f340003 0e3a0b3b 0549133f 193c1900  .4...:.;.I.?.<..
 00b0 00103700 49130000 11340003 0e3a0b3b  ..7.I....4...:.;
 00c0 0b49133f 193c1900 00122100 00001334  .I.?.<....!....4
 00d0 00030e3a 0b3b0b49 133f1902 18000014  ...:.;.I.?......
 00e0 2e013f19 030e3a0b 3b0b2719 49131101  ..?...:.;.'.I...
 00f0 12064018 97421901 13000015 0500030e  ..@..B..........
 0100 3a0b3b0b 49130217 00001634 00030e3a  :.;.I......4...:
 0110 0b3b0b49 13021700 00171d01 31131101  .;.I........1...
 0120 1206580b 590b0113 00001805 00311302  ..X.Y........1..
 0130 17000019 89820100 11013113 00001a2e  ..........1.....
 0140 013f1903 0e3a0b3b 0b271949 13200b34  .?...:.;.'.I. .4
 0150 19011300 001b0500 030e3a0b 3b0b4913  ..........:.;.I.
 0160 00001c18 0000001d 36000218 00001e2e  ........6.......
 0170 003f193c 196e0e03 0e3a0b3b 0b6e0e00  .?.<.n...:.;.n..
 0180 001f2e00 3f193c19 6e0e030e 3a0b3b0b  ....?.<.n...:.;.
 0190 0000202e 003f193c 196e0e03 0e3a0b3b  .. ..?.<.n...:.;
 01a0 05000000                             ....            
Contents of section .debug_line:
 0000 67010000 0200ee00 00000101 fb0e0d00  g...............
 0010 01010101 00000001 0000012f 7573722f  .........../usr/
 0020 696e636c 7564652f 69333836 2d6c696e  include/i386-lin
 0030 75782d67 6e752f62 69747300 2f757372  ux-gnu/bits./usr
 0040 2f6c6962 2f676363 2f693638 362d6c69  /lib/gcc/i686-li
 0050 6e75782d 676e752f 362f696e 636c7564  nux-gnu/6/includ
 0060 65002f75 73722f69 6e636c75 64650000  e./usr/include..
 0070 626f6d62 2e630000 00007374 64696f32  bomb.c....stdio2
 0080 2e680001 00007374 64646566 2e680002  .h....stddef.h..
 0090 00007479 7065732e 68000100 00737464  ..types.h....std
 00a0 696f2e68 00030000 6c696269 6f2e6800  io.h....libio.h.
 00b0 03000073 79735f65 72726c69 73742e68  ...sys_errlist.h
 00c0 00010000 73757070 6f72742e 68000000  ....support.h...
 00d0 00706861 7365732e 68000000 00737464  .phases.h....std
 00e0 6c69622e 68000300 003c6275 696c742d  lib.h....<built-
 00f0 696e3e00 00000000 000502db 89040803  in>.............
 0100 24010844 9891030d 08e40402 03255804  $..D.........%X.
 0110 01036108 82598304 02031d58 04010369  ..a..Y.....X...i
 0120 ba598304 02031558 04010370 ba598304  .Y.....X...p.Y..
 0130 02030e58 04010376 ba598304 02600401  ...X...v.Y...`..
 0140 b6598304 025a0401 bd598388 03bb7fe4  .Y...Z...Y......
 0150 0402033a e4040103 50081204 020330ba  ...:....P.....0.
 0160 04010357 0812020c 000101             ...W.......     
Contents of section .debug_str:
 0000 7072696e 7466005f 5f6f6666 5f74005f  printf.__off_t._
 0010 494f5f72 6561645f 70747200 5f636861  IO_read_ptr._cha
 0020 696e0073 697a655f 74005f73 686f7274  in.size_t._short
 0030 62756600 5f494f5f 325f315f 73746465  buf._IO_2_1_stde
 0040 72725f00 5f494f5f 6275665f 62617365  rr_._IO_buf_base
 0050 00474e55 20433131 20362e33 2e302032  .GNU C11 6.3.0 2
 0060 30313730 34303620 2d6d7475 6e653d67  0170406 -mtune=g
 0070 656e6572 6963202d 6d617263 683d6936  eneric -march=i6
 0080 3836202d 67676462 202d4f31 202d6673  86 -ggdb -O1 -fs
 0090 7461636b 2d70726f 74656374 6f722d73  tack-protector-s
 00a0 74726f6e 67006c6f 6e67206c 6f6e6720  trong.long long 
 00b0 756e7369 676e6564 20696e74 00726561  unsigned int.rea
 00c0 645f6c69 6e65006c 6f6e6720 6c6f6e67  d_line.long long
 00d0 20696e74 00706861 73655f64 65667573   int.phase_defus
 00e0 6564005f 66696c65 6e6f005f 494f5f72  ed._fileno._IO_r
 00f0 6561645f 656e6400 5f666c61 6773005f  ead_end._flags._
 0100 494f5f62 75665f65 6e64005f 6375725f  IO_buf_end._cur_
 0110 636f6c75 6d6e005f 5f717561 645f7400  column.__quad_t.
 0120 5f5f7072 696e7466 5f63686b 005f6f6c  __printf_chk._ol
 0130 645f6f66 66736574 00696e66 696c6500  d_offset.infile.
 0140 696e6974 69616c69 7a655f62 6f6d6200  initialize_bomb.
 0150 5f494f5f 6d61726b 65720073 7464696e  _IO_marker.stdin
 0160 005f494f 5f46494c 455f706c 7573005f  ._IO_FILE_plus._
 0170 494f5f77 72697465 5f707472 00737973  IO_write_ptr.sys
 0180 5f6e6572 72005f73 62756600 73686f72  _nerr._sbuf.shor
 0190 7420756e 7369676e 65642069 6e74005f  t unsigned int._
 01a0 494f5f73 6176655f 62617365 005f6c6f  IO_save_base._lo
 01b0 636b005f 666c6167 7332005f 6d6f6465  ck._flags2._mode
 01c0 005f5f62 75696c74 696e5f70 75747300  .__builtin_puts.
 01d0 7374646f 7574005f 494f5f32 5f315f73  stdout._IO_2_1_s
 01e0 7464696e 5f007369 7a657479 7065005f  tdin_.sizetype._
 01f0 494f5f77 72697465 5f656e64 002f686f  IO_write_end./ho
 0200 6d652f77 616e6764 712f6963 73323031  me/wangdq/ics201
 0210 392f6c61 62322f73 7263005f 494f5f6c  9/lab2/src._IO_l
 0220 6f636b5f 74005f49 4f5f4649 4c450066  ock_t._IO_FILE.f
 0230 6f70656e 005f706f 73007379 735f6572  open._pos.sys_er
 0240 726c6973 74005f6d 61726b65 72730075  rlist._markers.u
 0250 6e736967 6e656420 63686172 0073686f  nsigned char.sho
 0260 72742069 6e74005f 76746162 6c655f6f  rt int._vtable_o
 0270 66667365 74005f49 4f5f325f 315f7374  ffset._IO_2_1_st
 0280 646f7574 5f006578 69740062 6f6d622e  dout_.exit.bomb.
 0290 6300696e 70757400 5f6e6578 74005f5f  c.input._next.__
 02a0 6f666636 345f7400 5f494f5f 72656164  off64_t._IO_read
 02b0 5f626173 65005f49 4f5f7361 76655f65  _base._IO_save_e
 02c0 6e64005f 5f666d74 005f5f70 61643100  nd.__fmt.__pad1.
 02d0 5f5f7061 6432005f 5f706164 33005f5f  __pad2.__pad3.__
 02e0 70616434 005f5f70 61643500 5f756e75  pad4.__pad5._unu
 02f0 73656432 00737464 65727200 61726776  sed2.stderr.argv
 0300 00706861 73655f31 00706861 73655f32  .phase_1.phase_2
 0310 00706861 73655f33 00706861 73655f34  .phase_3.phase_4
 0320 00706861 73655f35 00706861 73655f36  .phase_5.phase_6
 0330 005f494f 5f626163 6b75705f 62617365  ._IO_backup_base
 0340 00617267 63006d61 696e005f 494f5f77  .argc.main._IO_w
 0350 72697465 5f626173 6500               rite_base.      
Contents of section .debug_loc:
 0000 00000000 53000000 02009100 1e010000  ....S...........
 0010 23010000 01005023 0100004a 01000002  #.....P#...J....
 0020 0091004a 0100005a 01000001 00505a01  ...J...Z.....PZ.
 0030 00006701 00000200 91000000 00000000  ..g.............
 0040 00000000 00005300 00000200 91041e01  ......S.........
 0050 00006701 00000200 91040000 00000000  ..g.............
 0060 00006900 00007000 00000100 50870000  ..i...p.....P...
 0070 008e0000 00010050 a5000000 ac000000  .......P........
 0080 010050c3 000000ca 00000001 0050e100  ..P..........P..
 0090 0000e800 00000100 50ff0000 00060100  ........P.......
 00a0 00010050 00000000 00000000 4b000000  ...P........K...
 00b0 58000000 0600f2c1 05000000 00000000  X...............
 00c0 00000000 58000000 64000000 0600f210  ....X...d.......
 00d0 06000000 00000000 00000000 76000000  ............v...
 00e0 82000000 0600f241 06000000 00000000  .......A........
 00f0 00000000 94000000 a0000000 0600f26f  ...............o
 0100 06000000 00000000 00000000 b2000000  ................
 0110 be000000 0600f292 06000000 00000000  ................
 0120 00000000 d0000000 dc000000 0600f2a6  ................
 0130 06000000 00000000 00000000 ee000000  ................
 0140 fa000000 0600f2cf 06000000 00000000  ................
 0150 00000000 2d010000 3e010000 060003ea  ....-...>.......
 0160 9e04089f 00000000 00000000 4a010000  ............J...
 0170 5b010000 06000307 9f04089f 00000000  [...............
 0180 00000000                             ....            

Disassembly of section .interp:

08048154 <.interp>:
 8048154:	2f                   	das    
 8048155:	6c                   	insb   (%dx),%es:(%edi)
 8048156:	69 62 2f 6c 64 2d 6c 	imul   $0x6c2d646c,0x2f(%edx),%esp
 804815d:	69 6e 75 78 2e 73 6f 	imul   $0x6f732e78,0x75(%esi),%ebp
 8048164:	2e 32 00             	xor    %cs:(%eax),%al

Disassembly of section .note.ABI-tag:

08048168 <.note.ABI-tag>:
 8048168:	04 00                	add    $0x0,%al
 804816a:	00 00                	add    %al,(%eax)
 804816c:	10 00                	adc    %al,(%eax)
 804816e:	00 00                	add    %al,(%eax)
 8048170:	01 00                	add    %eax,(%eax)
 8048172:	00 00                	add    %al,(%eax)
 8048174:	47                   	inc    %edi
 8048175:	4e                   	dec    %esi
 8048176:	55                   	push   %ebp
 8048177:	00 00                	add    %al,(%eax)
 8048179:	00 00                	add    %al,(%eax)
 804817b:	00 02                	add    %al,(%edx)
 804817d:	00 00                	add    %al,(%eax)
 804817f:	00 06                	add    %al,(%esi)
 8048181:	00 00                	add    %al,(%eax)
 8048183:	00 20                	add    %ah,(%eax)
 8048185:	00 00                	add    %al,(%eax)
	...

Disassembly of section .note.gnu.build-id:

08048188 <.note.gnu.build-id>:
 8048188:	04 00                	add    $0x0,%al
 804818a:	00 00                	add    %al,(%eax)
 804818c:	14 00                	adc    $0x0,%al
 804818e:	00 00                	add    %al,(%eax)
 8048190:	03 00                	add    (%eax),%eax
 8048192:	00 00                	add    %al,(%eax)
 8048194:	47                   	inc    %edi
 8048195:	4e                   	dec    %esi
 8048196:	55                   	push   %ebp
 8048197:	00 45 2d             	add    %al,0x2d(%ebp)
 804819a:	17                   	pop    %ss
 804819b:	a8 97                	test   $0x97,%al
 804819d:	8e f8                	mov    %eax,%?
 804819f:	5f                   	pop    %edi
 80481a0:	f8                   	clc    
 80481a1:	81 37 79 9c 6f df    	xorl   $0xdf6f9c79,(%edi)
 80481a7:	d6                   	(bad)  
 80481a8:	29                   	.byte 0x29
 80481a9:	b3 77                	mov    $0x77,%bl
 80481ab:	1e                   	push   %ds

Disassembly of section .gnu.hash:

080481ac <.gnu.hash>:
 80481ac:	03 00                	add    (%eax),%eax
 80481ae:	00 00                	add    %al,(%eax)
 80481b0:	1c 00                	sbb    $0x0,%al
 80481b2:	00 00                	add    %al,(%eax)
 80481b4:	01 00                	add    %eax,(%eax)
 80481b6:	00 00                	add    %al,(%eax)
 80481b8:	05 00 00 00 80       	add    $0x80000000,%eax
 80481bd:	2b 02                	sub    (%edx),%eax
 80481bf:	22 1c 00             	and    (%eax,%eax,1),%bl
 80481c2:	00 00                	add    %al,(%eax)
 80481c4:	1d 00 00 00 00       	sbb    $0x0,%eax
 80481c9:	00 00                	add    %al,(%eax)
 80481cb:	00 29                	add    %ch,(%ecx)
 80481cd:	1d 8c 1c 38 f2       	sbb    $0xf2381c8c,%eax
 80481d2:	8b 1c ac             	mov    (%esp,%ebp,4),%ebx
 80481d5:	4b                   	dec    %ebx
 80481d6:	e3 c0                	jecxz  8048198 <_init-0x55c>
 80481d8:	67 55                	addr16 push %ebp
 80481da:	61                   	popa   
 80481db:	10                   	.byte 0x10

Disassembly of section .dynsym:

080481dc <.dynsym>:
	...
 80481ec:	a0 00 00 00 00       	mov    0x0,%al
 80481f1:	00 00                	add    %al,(%eax)
 80481f3:	00 00                	add    %al,(%eax)
 80481f5:	00 00                	add    %al,(%eax)
 80481f7:	00 12                	add    %dl,(%edx)
 80481f9:	00 00                	add    %al,(%eax)
 80481fb:	00 21                	add    %ah,(%ecx)
	...
 8048205:	00 00                	add    %al,(%eax)
 8048207:	00 12                	add    %dl,(%edx)
 8048209:	00 00                	add    %al,(%eax)
 804820b:	00 89 00 00 00 00    	add    %cl,0x0(%ecx)
 8048211:	00 00                	add    %al,(%eax)
 8048213:	00 00                	add    %al,(%eax)
 8048215:	00 00                	add    %al,(%eax)
 8048217:	00 12                	add    %dl,(%edx)
 8048219:	00 00                	add    %al,(%eax)
 804821b:	00 5f 00             	add    %bl,0x0(%edi)
	...
 8048226:	00 00                	add    %al,(%eax)
 8048228:	12 00                	adc    (%eax),%al
 804822a:	00 00                	add    %al,(%eax)
 804822c:	fe 00                	incb   (%eax)
	...
 8048236:	00 00                	add    %al,(%eax)
 8048238:	12 00                	adc    (%eax),%al
 804823a:	00 00                	add    %al,(%eax)
 804823c:	e4 00                	in     $0x0,%al
	...
 8048246:	00 00                	add    %al,(%eax)
 8048248:	12 00                	adc    (%eax),%al
 804824a:	00 00                	add    %al,(%eax)
 804824c:	6b 00 00             	imul   $0x0,(%eax),%eax
	...
 8048257:	00 12                	add    %dl,(%edx)
 8048259:	00 00                	add    %al,(%eax)
 804825b:	00 28                	add    %ch,(%eax)
	...
 8048265:	00 00                	add    %al,(%eax)
 8048267:	00 12                	add    %dl,(%edx)
 8048269:	00 00                	add    %al,(%eax)
 804826b:	00 d6                	add    %dl,%dh
	...
 8048275:	00 00                	add    %al,(%eax)
 8048277:	00 12                	add    %dl,(%edx)
 8048279:	00 00                	add    %al,(%eax)
 804827b:	00 66 00             	add    %ah,0x0(%esi)
	...
 8048286:	00 00                	add    %al,(%eax)
 8048288:	12 00                	adc    (%eax),%al
 804828a:	00 00                	add    %al,(%eax)
 804828c:	ba 00 00 00 00       	mov    $0x0,%edx
 8048291:	00 00                	add    %al,(%eax)
 8048293:	00 00                	add    %al,(%eax)
 8048295:	00 00                	add    %al,(%eax)
 8048297:	00 12                	add    %dl,(%edx)
 8048299:	00 00                	add    %al,(%eax)
 804829b:	00 2a                	add    %ch,(%edx)
 804829d:	01 00                	add    %eax,(%eax)
	...
 80482a7:	00 20                	add    %ah,(%eax)
 80482a9:	00 00                	add    %al,(%eax)
 80482ab:	00 3c 00             	add    %bh,(%eax,%eax,1)
	...
 80482b6:	00 00                	add    %al,(%eax)
 80482b8:	12 00                	adc    (%eax),%al
 80482ba:	00 00                	add    %al,(%eax)
 80482bc:	12 01                	adc    (%ecx),%al
	...
 80482c6:	00 00                	add    %al,(%eax)
 80482c8:	12 00                	adc    (%eax),%al
 80482ca:	00 00                	add    %al,(%eax)
 80482cc:	24 01                	and    $0x1,%al
	...
 80482d6:	00 00                	add    %al,(%eax)
 80482d8:	12 00                	adc    (%eax),%al
 80482da:	00 00                	add    %al,(%eax)
 80482dc:	47                   	inc    %edi
	...
 80482e5:	00 00                	add    %al,(%eax)
 80482e7:	00 12                	add    %dl,(%edx)
 80482e9:	00 00                	add    %al,(%eax)
 80482eb:	00 41 00             	add    %al,0x0(%ecx)
	...
 80482f6:	00 00                	add    %al,(%eax)
 80482f8:	12 00                	adc    (%eax),%al
 80482fa:	00 00                	add    %al,(%eax)
 80482fc:	8f 00                	popl   (%eax)
	...
 8048306:	00 00                	add    %al,(%eax)
 8048308:	12 00                	adc    (%eax),%al
 804830a:	00 00                	add    %al,(%eax)
 804830c:	2f                   	das    
	...
 8048315:	00 00                	add    %al,(%eax)
 8048317:	00 12                	add    %dl,(%edx)
 8048319:	00 00                	add    %al,(%eax)
 804831b:	00 1a                	add    %bl,(%edx)
	...
 8048325:	00 00                	add    %al,(%eax)
 8048327:	00 12                	add    %dl,(%edx)
 8048329:	00 00                	add    %al,(%eax)
 804832b:	00 a5 00 00 00 00    	add    %ah,0x0(%ebp)
 8048331:	00 00                	add    %al,(%eax)
 8048333:	00 00                	add    %al,(%eax)
 8048335:	00 00                	add    %al,(%eax)
 8048337:	00 12                	add    %dl,(%edx)
 8048339:	00 00                	add    %al,(%eax)
 804833b:	00 ea                	add    %ch,%dl
	...
 8048345:	00 00                	add    %al,(%eax)
 8048347:	00 12                	add    %dl,(%edx)
 8048349:	00 00                	add    %al,(%eax)
 804834b:	00 82 00 00 00 00    	add    %al,0x0(%edx)
 8048351:	00 00                	add    %al,(%eax)
 8048353:	00 00                	add    %al,(%eax)
 8048355:	00 00                	add    %al,(%eax)
 8048357:	00 12                	add    %dl,(%edx)
 8048359:	00 00                	add    %al,(%eax)
 804835b:	00 57 00             	add    %dl,0x0(%edi)
	...
 8048366:	00 00                	add    %al,(%eax)
 8048368:	12 00                	adc    (%eax),%al
 804836a:	00 00                	add    %al,(%eax)
 804836c:	f8                   	clc    
	...
 8048375:	00 00                	add    %al,(%eax)
 8048377:	00 12                	add    %dl,(%edx)
 8048379:	00 00                	add    %al,(%eax)
 804837b:	00 c8                	add    %cl,%al
	...
 8048385:	00 00                	add    %al,(%eax)
 8048387:	00 12                	add    %dl,(%edx)
 8048389:	00 00                	add    %al,(%eax)
 804838b:	00 04 01             	add    %al,(%ecx,%eax,1)
	...
 8048396:	00 00                	add    %al,(%eax)
 8048398:	12 00                	adc    (%eax),%al
 804839a:	00 00                	add    %al,(%eax)
 804839c:	b3 00                	mov    $0x0,%bl
 804839e:	00 00                	add    %al,(%eax)
 80483a0:	c4 c3                	(bad)  
 80483a2:	04 08                	add    $0x8,%al
 80483a4:	04 00                	add    $0x0,%al
 80483a6:	00 00                	add    %al,(%eax)
 80483a8:	11 00                	adc    %eax,(%eax)
 80483aa:	1a 00                	sbb    (%eax),%al
 80483ac:	dd 00                	fldl   (%eax)
 80483ae:	00 00                	add    %al,(%eax)
 80483b0:	a0 c3 04 08 04       	mov    0x40804c3,%al
 80483b5:	00 00                	add    %al,(%eax)
 80483b7:	00 11                	add    %dl,(%ecx)
 80483b9:	00 1a                	add    %bl,(%edx)
 80483bb:	00 0b                	add    %cl,(%ebx)
 80483bd:	00 00                	add    %al,(%eax)
 80483bf:	00 e4                	add    %ah,%ah
 80483c1:	9e                   	sahf   
 80483c2:	04 08                	add    $0x8,%al
 80483c4:	04 00                	add    $0x0,%al
 80483c6:	00 00                	add    %al,(%eax)
 80483c8:	11 00                	adc    %eax,(%eax)
 80483ca:	10 00                	adc    %al,(%eax)
 80483cc:	7c 00                	jl     80483ce <_init-0x326>
 80483ce:	00 00                	add    %al,(%eax)
 80483d0:	c0 c3 04             	rol    $0x4,%bl
 80483d3:	08 04 00             	or     %al,(%eax,%eax,1)
 80483d6:	00 00                	add    %al,(%eax)
 80483d8:	11 00                	adc    %eax,(%eax)
 80483da:	1a 00                	sbb    (%eax),%al

Disassembly of section .dynstr:

080483dc <.dynstr>:
 80483dc:	00 6c 69 62          	add    %ch,0x62(%ecx,%ebp,2)
 80483e0:	63 2e                	arpl   %bp,(%esi)
 80483e2:	73 6f                	jae    8048453 <_init-0x2a1>
 80483e4:	2e 36 00 5f 49       	cs add %bl,%ss:0x49(%edi)
 80483e9:	4f                   	dec    %edi
 80483ea:	5f                   	pop    %edi
 80483eb:	73 74                	jae    8048461 <_init-0x293>
 80483ed:	64 69 6e 5f 75 73 65 	imul   $0x64657375,%fs:0x5f(%esi),%ebp
 80483f4:	64 
 80483f5:	00 73 6f             	add    %dh,0x6f(%ebx)
 80483f8:	63 6b 65             	arpl   %bp,0x65(%ebx)
 80483fb:	74 00                	je     80483fd <_init-0x2f7>
 80483fd:	66 66 6c             	data16 data16 insb (%dx),%es:(%edi)
 8048400:	75 73                	jne    8048475 <_init-0x27f>
 8048402:	68 00 73 74 72       	push   $0x72747300
 8048407:	63 70 79             	arpl   %si,0x79(%eax)
 804840a:	00 5f 5f             	add    %bl,0x5f(%edi)
 804840d:	70 72                	jo     8048481 <_init-0x273>
 804840f:	69 6e 74 66 5f 63 68 	imul   $0x68635f66,0x74(%esi),%ebp
 8048416:	6b 00 65             	imul   $0x65,(%eax),%eax
 8048419:	78 69                	js     8048484 <_init-0x270>
 804841b:	74 00                	je     804841d <_init-0x2d7>
 804841d:	66 6f                	outsw  %ds:(%esi),(%dx)
 804841f:	70 65                	jo     8048486 <_init-0x26e>
 8048421:	6e                   	outsb  %ds:(%esi),(%dx)
 8048422:	00 5f 5f             	add    %bl,0x5f(%edi)
 8048425:	69 73 6f 63 39 39 5f 	imul   $0x5f393963,0x6f(%ebx),%esi
 804842c:	73 73                	jae    80484a1 <_init-0x253>
 804842e:	63 61 6e             	arpl   %sp,0x6e(%ecx)
 8048431:	66 00 63 6f          	data16 add %ah,0x6f(%ebx)
 8048435:	6e                   	outsb  %ds:(%esi),(%dx)
 8048436:	6e                   	outsb  %ds:(%esi),(%dx)
 8048437:	65 63 74 00 73       	arpl   %si,%gs:0x73(%eax,%eax,1)
 804843c:	69 67 6e 61 6c 00 70 	imul   $0x70006c61,0x6e(%edi),%esp
 8048443:	75 74                	jne    80484b9 <_init-0x23b>
 8048445:	73 00                	jae    8048447 <_init-0x2ad>
 8048447:	5f                   	pop    %edi
 8048448:	5f                   	pop    %edi
 8048449:	73 74                	jae    80484bf <_init-0x235>
 804844b:	61                   	popa   
 804844c:	63 6b 5f             	arpl   %bp,0x5f(%ebx)
 804844f:	63 68 6b             	arpl   %bp,0x6b(%eax)
 8048452:	5f                   	pop    %edi
 8048453:	66 61                	popaw  
 8048455:	69 6c 00 73 74 64 69 	imul   $0x6e696474,0x73(%eax,%eax,1),%ebp
 804845c:	6e 
 804845d:	00 73 74             	add    %dh,0x74(%ebx)
 8048460:	72 74                	jb     80484d6 <_init-0x21e>
 8048462:	6f                   	outsl  %ds:(%esi),(%dx)
 8048463:	6c                   	insb   (%dx),%es:(%edi)
 8048464:	00 66 67             	add    %ah,0x67(%esi)
 8048467:	65 74 73             	gs je  80484dd <_init-0x217>
 804846a:	00 5f 5f             	add    %bl,0x5f(%edi)
 804846d:	65 72 72             	gs jb  80484e2 <_init-0x212>
 8048470:	6e                   	outsb  %ds:(%esi),(%dx)
 8048471:	6f                   	outsl  %ds:(%esi),(%dx)
 8048472:	5f                   	pop    %edi
 8048473:	6c                   	insb   (%dx),%es:(%edi)
 8048474:	6f                   	outsl  %ds:(%esi),(%dx)
 8048475:	63 61 74             	arpl   %sp,0x74(%ecx)
 8048478:	69 6f 6e 00 72 65 61 	imul   $0x61657200,0x6e(%edi),%ebp
 804847f:	64 00 5f 5f          	add    %bl,%fs:0x5f(%edi)
 8048483:	66 70 72             	data16 jo 80484f8 <_init-0x1fc>
 8048486:	69 6e 74 66 5f 63 68 	imul   $0x68635f66,0x74(%esi),%ebp
 804848d:	6b 00 73             	imul   $0x73,(%eax),%eax
 8048490:	74 64                	je     80484f6 <_init-0x1fe>
 8048492:	6f                   	outsl  %ds:(%esi),(%dx)
 8048493:	75 74                	jne    8048509 <_init-0x1eb>
 8048495:	00 5f 5f             	add    %bl,0x5f(%edi)
 8048498:	6d                   	insl   (%dx),%es:(%edi)
 8048499:	65 6d                	gs insl (%dx),%es:(%edi)
 804849b:	6d                   	insl   (%dx),%es:(%edi)
 804849c:	6f                   	outsl  %ds:(%esi),(%dx)
 804849d:	76 65                	jbe    8048504 <_init-0x1f0>
 804849f:	5f                   	pop    %edi
 80484a0:	63 68 6b             	arpl   %bp,0x6b(%eax)
 80484a3:	00 5f 5f             	add    %bl,0x5f(%edi)
 80484a6:	63 74 79 70          	arpl   %si,0x70(%ecx,%edi,2)
 80484aa:	65 5f                	gs pop %edi
 80484ac:	62 5f 6c             	bound  %ebx,0x6c(%edi)
 80484af:	6f                   	outsl  %ds:(%esi),(%dx)
 80484b0:	63 00                	arpl   %ax,(%eax)
 80484b2:	67 65 74 65          	addr16 gs je 804851b <_init-0x1d9>
 80484b6:	6e                   	outsb  %ds:(%esi),(%dx)
 80484b7:	76 00                	jbe    80484b9 <_init-0x23b>
 80484b9:	73 74                	jae    804852f <_init-0x1c5>
 80484bb:	64 65 72 72          	fs gs jb 8048531 <_init-0x1c3>
 80484bf:	00 61 6c             	add    %ah,0x6c(%ecx)
 80484c2:	61                   	popa   
 80484c3:	72 6d                	jb     8048532 <_init-0x1c2>
 80484c5:	00 67 65             	add    %ah,0x65(%edi)
 80484c8:	74 68                	je     8048532 <_init-0x1c2>
 80484ca:	6f                   	outsl  %ds:(%esi),(%dx)
 80484cb:	73 74                	jae    8048541 <_init-0x1b3>
 80484cd:	62 79 6e             	bound  %edi,0x6e(%ecx)
 80484d0:	61                   	popa   
 80484d1:	6d                   	insl   (%dx),%es:(%edi)
 80484d2:	65 00 63 6c          	add    %ah,%gs:0x6c(%ebx)
 80484d6:	6f                   	outsl  %ds:(%esi),(%dx)
 80484d7:	73 65                	jae    804853e <_init-0x1b6>
 80484d9:	00 73 6c             	add    %dh,0x6c(%ebx)
 80484dc:	65 65 70 00          	gs gs jo 80484e0 <_init-0x214>
 80484e0:	5f                   	pop    %edi
 80484e1:	5f                   	pop    %edi
 80484e2:	73 70                	jae    8048554 <_init-0x1a0>
 80484e4:	72 69                	jb     804854f <_init-0x1a5>
 80484e6:	6e                   	outsb  %ds:(%esi),(%dx)
 80484e7:	74 66                	je     804854f <_init-0x1a5>
 80484e9:	5f                   	pop    %edi
 80484ea:	63 68 6b             	arpl   %bp,0x6b(%eax)
 80484ed:	00 5f 5f             	add    %bl,0x5f(%edi)
 80484f0:	6c                   	insb   (%dx),%es:(%edi)
 80484f1:	69 62 63 5f 73 74 61 	imul   $0x6174735f,0x63(%edx),%esp
 80484f8:	72 74                	jb     804856e <_init-0x186>
 80484fa:	5f                   	pop    %edi
 80484fb:	6d                   	insl   (%dx),%es:(%edi)
 80484fc:	61                   	popa   
 80484fd:	69 6e 00 77 72 69 74 	imul   $0x74697277,0x0(%esi),%ebp
 8048504:	65 00 5f 5f          	add    %bl,%gs:0x5f(%edi)
 8048508:	67 6d                	insl   (%dx),%es:(%di)
 804850a:	6f                   	outsl  %ds:(%esi),(%dx)
 804850b:	6e                   	outsb  %ds:(%esi),(%dx)
 804850c:	5f                   	pop    %edi
 804850d:	73 74                	jae    8048583 <_init-0x171>
 804850f:	61                   	popa   
 8048510:	72 74                	jb     8048586 <_init-0x16e>
 8048512:	5f                   	pop    %edi
 8048513:	5f                   	pop    %edi
 8048514:	00 47 4c             	add    %al,0x4c(%edi)
 8048517:	49                   	dec    %ecx
 8048518:	42                   	inc    %edx
 8048519:	43                   	inc    %ebx
 804851a:	5f                   	pop    %edi
 804851b:	32 2e                	xor    (%esi),%ch
 804851d:	33 00                	xor    (%eax),%eax
 804851f:	47                   	inc    %edi
 8048520:	4c                   	dec    %esp
 8048521:	49                   	dec    %ecx
 8048522:	42                   	inc    %edx
 8048523:	43                   	inc    %ebx
 8048524:	5f                   	pop    %edi
 8048525:	32 2e                	xor    (%esi),%ch
 8048527:	31 00                	xor    %eax,(%eax)
 8048529:	47                   	inc    %edi
 804852a:	4c                   	dec    %esp
 804852b:	49                   	dec    %ecx
 804852c:	42                   	inc    %edx
 804852d:	43                   	inc    %ebx
 804852e:	5f                   	pop    %edi
 804852f:	32 2e                	xor    (%esi),%ch
 8048531:	37                   	aaa    
 8048532:	00 47 4c             	add    %al,0x4c(%edi)
 8048535:	49                   	dec    %ecx
 8048536:	42                   	inc    %edx
 8048537:	43                   	inc    %ebx
 8048538:	5f                   	pop    %edi
 8048539:	32 2e                	xor    (%esi),%ch
 804853b:	33 2e                	xor    (%esi),%ebp
 804853d:	34 00                	xor    $0x0,%al
 804853f:	47                   	inc    %edi
 8048540:	4c                   	dec    %esp
 8048541:	49                   	dec    %ecx
 8048542:	42                   	inc    %edx
 8048543:	43                   	inc    %ebx
 8048544:	5f                   	pop    %edi
 8048545:	32 2e                	xor    (%esi),%ch
 8048547:	34 00                	xor    $0x0,%al
 8048549:	47                   	inc    %edi
 804854a:	4c                   	dec    %esp
 804854b:	49                   	dec    %ecx
 804854c:	42                   	inc    %edx
 804854d:	43                   	inc    %ebx
 804854e:	5f                   	pop    %edi
 804854f:	32 2e                	xor    (%esi),%ch
 8048551:	30 00                	xor    %al,(%eax)

Disassembly of section .gnu.version:

08048554 <.gnu.version>:
 8048554:	00 00                	add    %al,(%eax)
 8048556:	02 00                	add    (%eax),%al
 8048558:	02 00                	add    (%eax),%al
 804855a:	02 00                	add    (%eax),%al
 804855c:	02 00                	add    (%eax),%al
 804855e:	02 00                	add    (%eax),%al
 8048560:	02 00                	add    (%eax),%al
 8048562:	03 00                	add    (%eax),%eax
 8048564:	02 00                	add    (%eax),%al
 8048566:	02 00                	add    (%eax),%al
 8048568:	02 00                	add    (%eax),%al
 804856a:	04 00                	add    $0x0,%al
 804856c:	00 00                	add    %al,(%eax)
 804856e:	02 00                	add    (%eax),%al
 8048570:	02 00                	add    (%eax),%al
 8048572:	02 00                	add    (%eax),%al
 8048574:	05 00 06 00 02       	add    $0x2000600,%eax
 8048579:	00 04 00             	add    %al,(%eax,%eax,1)
 804857c:	02 00                	add    (%eax),%al
 804857e:	04 00                	add    $0x0,%al
 8048580:	02 00                	add    (%eax),%al
 8048582:	02 00                	add    (%eax),%al
 8048584:	02 00                	add    (%eax),%al
 8048586:	02 00                	add    (%eax),%al
 8048588:	07                   	pop    %es
 8048589:	00 04 00             	add    %al,(%eax,%eax,1)
 804858c:	02 00                	add    (%eax),%al
 804858e:	02 00                	add    (%eax),%al
 8048590:	01 00                	add    %eax,(%eax)
 8048592:	02 00                	add    (%eax),%al

Disassembly of section .gnu.version_r:

08048594 <.gnu.version_r>:
 8048594:	01 00                	add    %eax,(%eax)
 8048596:	06                   	push   %es
 8048597:	00 01                	add    %al,(%ecx)
 8048599:	00 00                	add    %al,(%eax)
 804859b:	00 10                	add    %dl,(%eax)
 804859d:	00 00                	add    %al,(%eax)
 804859f:	00 00                	add    %al,(%eax)
 80485a1:	00 00                	add    %al,(%eax)
 80485a3:	00 13                	add    %dl,(%ebx)
 80485a5:	69 69 0d 00 00 07 00 	imul   $0x70000,0xd(%ecx),%ebp
 80485ac:	39 01                	cmp    %eax,(%ecx)
 80485ae:	00 00                	add    %al,(%eax)
 80485b0:	10 00                	adc    %al,(%eax)
 80485b2:	00 00                	add    %al,(%eax)
 80485b4:	11 69 69             	adc    %ebp,0x69(%ecx)
 80485b7:	0d 00 00 06 00       	or     $0x60000,%eax
 80485bc:	43                   	inc    %ebx
 80485bd:	01 00                	add    %eax,(%eax)
 80485bf:	00 10                	add    %dl,(%eax)
 80485c1:	00 00                	add    %al,(%eax)
 80485c3:	00 17                	add    %dl,(%edi)
 80485c5:	69 69 0d 00 00 05 00 	imul   $0x50000,0xd(%ecx),%ebp
 80485cc:	4d                   	dec    %ebp
 80485cd:	01 00                	add    %eax,(%eax)
 80485cf:	00 10                	add    %dl,(%eax)
 80485d1:	00 00                	add    %al,(%eax)
 80485d3:	00 74 19 69          	add    %dh,0x69(%ecx,%ebx,1)
 80485d7:	09 00                	or     %eax,(%eax)
 80485d9:	00 04 00             	add    %al,(%eax,%eax,1)
 80485dc:	57                   	push   %edi
 80485dd:	01 00                	add    %eax,(%eax)
 80485df:	00 10                	add    %dl,(%eax)
 80485e1:	00 00                	add    %al,(%eax)
 80485e3:	00 14 69             	add    %dl,(%ecx,%ebp,2)
 80485e6:	69 0d 00 00 03 00 63 	imul   $0x163,0x30000,%ecx
 80485ed:	01 00 00 
 80485f0:	10 00                	adc    %al,(%eax)
 80485f2:	00 00                	add    %al,(%eax)
 80485f4:	10 69 69             	adc    %ch,0x69(%ecx)
 80485f7:	0d 00 00 02 00       	or     $0x20000,%eax
 80485fc:	6d                   	insl   (%dx),%es:(%edi)
 80485fd:	01 00                	add    %eax,(%eax)
 80485ff:	00 00                	add    %al,(%eax)
 8048601:	00 00                	add    %al,(%eax)
	...

Disassembly of section .rel.dyn:

08048604 <.rel.dyn>:
 8048604:	fc                   	cld    
 8048605:	bf 04 08 06 0c       	mov    $0xc060804,%edi
 804860a:	00 00                	add    %al,(%eax)
 804860c:	a0 c3 04 08 05       	mov    0x50804c3,%al
 8048611:	1d 00 00 c0 c3       	sbb    $0xc3c00000,%eax
 8048616:	04 08                	add    $0x8,%al
 8048618:	05 1f 00 00 c4       	add    $0xc400001f,%eax
 804861d:	c3                   	ret    
 804861e:	04 08                	add    $0x8,%al
 8048620:	05                   	.byte 0x5
 8048621:	1c 00                	sbb    $0x0,%al
	...

Disassembly of section .rel.plt:

08048624 <.rel.plt>:
 8048624:	0c c0                	or     $0xc0,%al
 8048626:	04 08                	add    $0x8,%al
 8048628:	07                   	pop    %es
 8048629:	01 00                	add    %eax,(%eax)
 804862b:	00 10                	add    %dl,(%eax)
 804862d:	c0 04 08 07          	rolb   $0x7,(%eax,%ecx,1)
 8048631:	02 00                	add    (%eax),%al
 8048633:	00 14 c0             	add    %dl,(%eax,%eax,8)
 8048636:	04 08                	add    $0x8,%al
 8048638:	07                   	pop    %es
 8048639:	03 00                	add    (%eax),%eax
 804863b:	00 18                	add    %bl,(%eax)
 804863d:	c0 04 08 07          	rolb   $0x7,(%eax,%ecx,1)
 8048641:	04 00                	add    $0x0,%al
 8048643:	00 1c c0             	add    %bl,(%eax,%eax,8)
 8048646:	04 08                	add    $0x8,%al
 8048648:	07                   	pop    %es
 8048649:	05 00 00 20 c0       	add    $0xc0200000,%eax
 804864e:	04 08                	add    $0x8,%al
 8048650:	07                   	pop    %es
 8048651:	06                   	push   %es
 8048652:	00 00                	add    %al,(%eax)
 8048654:	24 c0                	and    $0xc0,%al
 8048656:	04 08                	add    $0x8,%al
 8048658:	07                   	pop    %es
 8048659:	07                   	pop    %es
 804865a:	00 00                	add    %al,(%eax)
 804865c:	28 c0                	sub    %al,%al
 804865e:	04 08                	add    $0x8,%al
 8048660:	07                   	pop    %es
 8048661:	08 00                	or     %al,(%eax)
 8048663:	00 2c c0             	add    %ch,(%eax,%eax,8)
 8048666:	04 08                	add    $0x8,%al
 8048668:	07                   	pop    %es
 8048669:	09 00                	or     %eax,(%eax)
 804866b:	00 30                	add    %dh,(%eax)
 804866d:	c0 04 08 07          	rolb   $0x7,(%eax,%ecx,1)
 8048671:	0a 00                	or     (%eax),%al
 8048673:	00 34 c0             	add    %dh,(%eax,%eax,8)
 8048676:	04 08                	add    $0x8,%al
 8048678:	07                   	pop    %es
 8048679:	0b 00                	or     (%eax),%eax
 804867b:	00 38                	add    %bh,(%eax)
 804867d:	c0 04 08 07          	rolb   $0x7,(%eax,%ecx,1)
 8048681:	0d 00 00 3c c0       	or     $0xc03c0000,%eax
 8048686:	04 08                	add    $0x8,%al
 8048688:	07                   	pop    %es
 8048689:	0e                   	push   %cs
 804868a:	00 00                	add    %al,(%eax)
 804868c:	40                   	inc    %eax
 804868d:	c0 04 08 07          	rolb   $0x7,(%eax,%ecx,1)
 8048691:	0f 00 00             	sldt   (%eax)
 8048694:	44                   	inc    %esp
 8048695:	c0 04 08 07          	rolb   $0x7,(%eax,%ecx,1)
 8048699:	10 00                	adc    %al,(%eax)
 804869b:	00 48 c0             	add    %cl,-0x40(%eax)
 804869e:	04 08                	add    $0x8,%al
 80486a0:	07                   	pop    %es
 80486a1:	11 00                	adc    %eax,(%eax)
 80486a3:	00 4c c0 04          	add    %cl,0x4(%eax,%eax,8)
 80486a7:	08 07                	or     %al,(%edi)
 80486a9:	12 00                	adc    (%eax),%al
 80486ab:	00 50 c0             	add    %dl,-0x40(%eax)
 80486ae:	04 08                	add    $0x8,%al
 80486b0:	07                   	pop    %es
 80486b1:	13 00                	adc    (%eax),%eax
 80486b3:	00 54 c0 04          	add    %dl,0x4(%eax,%eax,8)
 80486b7:	08 07                	or     %al,(%edi)
 80486b9:	14 00                	adc    $0x0,%al
 80486bb:	00 58 c0             	add    %bl,-0x40(%eax)
 80486be:	04 08                	add    $0x8,%al
 80486c0:	07                   	pop    %es
 80486c1:	15 00 00 5c c0       	adc    $0xc05c0000,%eax
 80486c6:	04 08                	add    $0x8,%al
 80486c8:	07                   	pop    %es
 80486c9:	16                   	push   %ss
 80486ca:	00 00                	add    %al,(%eax)
 80486cc:	60                   	pusha  
 80486cd:	c0 04 08 07          	rolb   $0x7,(%eax,%ecx,1)
 80486d1:	17                   	pop    %ss
 80486d2:	00 00                	add    %al,(%eax)
 80486d4:	64 c0 04 08 07       	rolb   $0x7,%fs:(%eax,%ecx,1)
 80486d9:	18 00                	sbb    %al,(%eax)
 80486db:	00 68 c0             	add    %ch,-0x40(%eax)
 80486de:	04 08                	add    $0x8,%al
 80486e0:	07                   	pop    %es
 80486e1:	19 00                	sbb    %eax,(%eax)
 80486e3:	00 6c c0 04          	add    %ch,0x4(%eax,%eax,8)
 80486e7:	08 07                	or     %al,(%edi)
 80486e9:	1a 00                	sbb    (%eax),%al
 80486eb:	00 70 c0             	add    %dh,-0x40(%eax)
 80486ee:	04 08                	add    $0x8,%al
 80486f0:	07                   	pop    %es
 80486f1:	1b 00                	sbb    (%eax),%eax
	...

Disassembly of section .init:

080486f4 <_init>:
 80486f4:	53                   	push   %ebx
 80486f5:	83 ec 08             	sub    $0x8,%esp
 80486f8:	e8 13 02 00 00       	call   8048910 <__x86.get_pc_thunk.bx>
 80486fd:	81 c3 03 39 00 00    	add    $0x3903,%ebx
 8048703:	8b 83 fc ff ff ff    	mov    -0x4(%ebx),%eax
 8048709:	85 c0                	test   %eax,%eax
 804870b:	74 05                	je     8048712 <_init+0x1e>
 804870d:	e8 be 01 00 00       	call   80488d0 <__sprintf_chk@plt+0x10>
 8048712:	83 c4 08             	add    $0x8,%esp
 8048715:	5b                   	pop    %ebx
 8048716:	c3                   	ret    

Disassembly of section .plt:

08048720 <read@plt-0x10>:
 8048720:	ff 35 04 c0 04 08    	pushl  0x804c004
 8048726:	ff 25 08 c0 04 08    	jmp    *0x804c008
 804872c:	00 00                	add    %al,(%eax)
	...

08048730 <read@plt>:
 8048730:	ff 25 0c c0 04 08    	jmp    *0x804c00c
 8048736:	68 00 00 00 00       	push   $0x0
 804873b:	e9 e0 ff ff ff       	jmp    8048720 <_init+0x2c>

08048740 <fflush@plt>:
 8048740:	ff 25 10 c0 04 08    	jmp    *0x804c010
 8048746:	68 08 00 00 00       	push   $0x8
 804874b:	e9 d0 ff ff ff       	jmp    8048720 <_init+0x2c>

08048750 <fgets@plt>:
 8048750:	ff 25 14 c0 04 08    	jmp    *0x804c014
 8048756:	68 10 00 00 00       	push   $0x10
 804875b:	e9 c0 ff ff ff       	jmp    8048720 <_init+0x2c>

08048760 <signal@plt>:
 8048760:	ff 25 18 c0 04 08    	jmp    *0x804c018
 8048766:	68 18 00 00 00       	push   $0x18
 804876b:	e9 b0 ff ff ff       	jmp    8048720 <_init+0x2c>

08048770 <sleep@plt>:
 8048770:	ff 25 1c c0 04 08    	jmp    *0x804c01c
 8048776:	68 20 00 00 00       	push   $0x20
 804877b:	e9 a0 ff ff ff       	jmp    8048720 <_init+0x2c>

08048780 <alarm@plt>:
 8048780:	ff 25 20 c0 04 08    	jmp    *0x804c020
 8048786:	68 28 00 00 00       	push   $0x28
 804878b:	e9 90 ff ff ff       	jmp    8048720 <_init+0x2c>

08048790 <__stack_chk_fail@plt>:
 8048790:	ff 25 24 c0 04 08    	jmp    *0x804c024
 8048796:	68 30 00 00 00       	push   $0x30
 804879b:	e9 80 ff ff ff       	jmp    8048720 <_init+0x2c>

080487a0 <strcpy@plt>:
 80487a0:	ff 25 28 c0 04 08    	jmp    *0x804c028
 80487a6:	68 38 00 00 00       	push   $0x38
 80487ab:	e9 70 ff ff ff       	jmp    8048720 <_init+0x2c>

080487b0 <getenv@plt>:
 80487b0:	ff 25 2c c0 04 08    	jmp    *0x804c02c
 80487b6:	68 40 00 00 00       	push   $0x40
 80487bb:	e9 60 ff ff ff       	jmp    8048720 <_init+0x2c>

080487c0 <puts@plt>:
 80487c0:	ff 25 30 c0 04 08    	jmp    *0x804c030
 80487c6:	68 48 00 00 00       	push   $0x48
 80487cb:	e9 50 ff ff ff       	jmp    8048720 <_init+0x2c>

080487d0 <__memmove_chk@plt>:
 80487d0:	ff 25 34 c0 04 08    	jmp    *0x804c034
 80487d6:	68 50 00 00 00       	push   $0x50
 80487db:	e9 40 ff ff ff       	jmp    8048720 <_init+0x2c>

080487e0 <exit@plt>:
 80487e0:	ff 25 38 c0 04 08    	jmp    *0x804c038
 80487e6:	68 58 00 00 00       	push   $0x58
 80487eb:	e9 30 ff ff ff       	jmp    8048720 <_init+0x2c>

080487f0 <__libc_start_main@plt>:
 80487f0:	ff 25 3c c0 04 08    	jmp    *0x804c03c
 80487f6:	68 60 00 00 00       	push   $0x60
 80487fb:	e9 20 ff ff ff       	jmp    8048720 <_init+0x2c>

08048800 <write@plt>:
 8048800:	ff 25 40 c0 04 08    	jmp    *0x804c040
 8048806:	68 68 00 00 00       	push   $0x68
 804880b:	e9 10 ff ff ff       	jmp    8048720 <_init+0x2c>

08048810 <__isoc99_sscanf@plt>:
 8048810:	ff 25 44 c0 04 08    	jmp    *0x804c044
 8048816:	68 70 00 00 00       	push   $0x70
 804881b:	e9 00 ff ff ff       	jmp    8048720 <_init+0x2c>

08048820 <fopen@plt>:
 8048820:	ff 25 48 c0 04 08    	jmp    *0x804c048
 8048826:	68 78 00 00 00       	push   $0x78
 804882b:	e9 f0 fe ff ff       	jmp    8048720 <_init+0x2c>

08048830 <__errno_location@plt>:
 8048830:	ff 25 4c c0 04 08    	jmp    *0x804c04c
 8048836:	68 80 00 00 00       	push   $0x80
 804883b:	e9 e0 fe ff ff       	jmp    8048720 <_init+0x2c>

08048840 <__printf_chk@plt>:
 8048840:	ff 25 50 c0 04 08    	jmp    *0x804c050
 8048846:	68 88 00 00 00       	push   $0x88
 804884b:	e9 d0 fe ff ff       	jmp    8048720 <_init+0x2c>

08048850 <socket@plt>:
 8048850:	ff 25 54 c0 04 08    	jmp    *0x804c054
 8048856:	68 90 00 00 00       	push   $0x90
 804885b:	e9 c0 fe ff ff       	jmp    8048720 <_init+0x2c>

08048860 <__fprintf_chk@plt>:
 8048860:	ff 25 58 c0 04 08    	jmp    *0x804c058
 8048866:	68 98 00 00 00       	push   $0x98
 804886b:	e9 b0 fe ff ff       	jmp    8048720 <_init+0x2c>

08048870 <gethostbyname@plt>:
 8048870:	ff 25 5c c0 04 08    	jmp    *0x804c05c
 8048876:	68 a0 00 00 00       	push   $0xa0
 804887b:	e9 a0 fe ff ff       	jmp    8048720 <_init+0x2c>

08048880 <strtol@plt>:
 8048880:	ff 25 60 c0 04 08    	jmp    *0x804c060
 8048886:	68 a8 00 00 00       	push   $0xa8
 804888b:	e9 90 fe ff ff       	jmp    8048720 <_init+0x2c>

08048890 <connect@plt>:
 8048890:	ff 25 64 c0 04 08    	jmp    *0x804c064
 8048896:	68 b0 00 00 00       	push   $0xb0
 804889b:	e9 80 fe ff ff       	jmp    8048720 <_init+0x2c>

080488a0 <close@plt>:
 80488a0:	ff 25 68 c0 04 08    	jmp    *0x804c068
 80488a6:	68 b8 00 00 00       	push   $0xb8
 80488ab:	e9 70 fe ff ff       	jmp    8048720 <_init+0x2c>

080488b0 <__ctype_b_loc@plt>:
 80488b0:	ff 25 6c c0 04 08    	jmp    *0x804c06c
 80488b6:	68 c0 00 00 00       	push   $0xc0
 80488bb:	e9 60 fe ff ff       	jmp    8048720 <_init+0x2c>

080488c0 <__sprintf_chk@plt>:
 80488c0:	ff 25 70 c0 04 08    	jmp    *0x804c070
 80488c6:	68 c8 00 00 00       	push   $0xc8
 80488cb:	e9 50 fe ff ff       	jmp    8048720 <_init+0x2c>

Disassembly of section .plt.got:

080488d0 <.plt.got>:
 80488d0:	ff 25 fc bf 04 08    	jmp    *0x804bffc
 80488d6:	66 90                	xchg   %ax,%ax

Disassembly of section .text:

080488e0 <_start>:
 80488e0:	31 ed                	xor    %ebp,%ebp
 80488e2:	5e                   	pop    %esi
 80488e3:	89 e1                	mov    %esp,%ecx
 80488e5:	83 e4 f0             	and    $0xfffffff0,%esp
 80488e8:	50                   	push   %eax
 80488e9:	54                   	push   %esp
 80488ea:	52                   	push   %edx
 80488eb:	68 b0 9e 04 08       	push   $0x8049eb0
 80488f0:	68 50 9e 04 08       	push   $0x8049e50
 80488f5:	51                   	push   %ecx
 80488f6:	56                   	push   %esi
 80488f7:	68 db 89 04 08       	push   $0x80489db
 80488fc:	e8 ef fe ff ff       	call   80487f0 <__libc_start_main@plt>
 8048901:	f4                   	hlt    
 8048902:	66 90                	xchg   %ax,%ax
 8048904:	66 90                	xchg   %ax,%ax
 8048906:	66 90                	xchg   %ax,%ax
 8048908:	66 90                	xchg   %ax,%ax
 804890a:	66 90                	xchg   %ax,%ax
 804890c:	66 90                	xchg   %ax,%ax
 804890e:	66 90                	xchg   %ax,%ax

08048910 <__x86.get_pc_thunk.bx>:
 8048910:	8b 1c 24             	mov    (%esp),%ebx
 8048913:	c3                   	ret    
 8048914:	66 90                	xchg   %ax,%ax
 8048916:	66 90                	xchg   %ax,%ax
 8048918:	66 90                	xchg   %ax,%ax
 804891a:	66 90                	xchg   %ax,%ax
 804891c:	66 90                	xchg   %ax,%ax
 804891e:	66 90                	xchg   %ax,%ax

08048920 <deregister_tm_clones>:
 8048920:	b8 a3 c3 04 08       	mov    $0x804c3a3,%eax
 8048925:	2d a0 c3 04 08       	sub    $0x804c3a0,%eax
 804892a:	83 f8 06             	cmp    $0x6,%eax
 804892d:	76 1a                	jbe    8048949 <deregister_tm_clones+0x29>
 804892f:	b8 00 00 00 00       	mov    $0x0,%eax
 8048934:	85 c0                	test   %eax,%eax
 8048936:	74 11                	je     8048949 <deregister_tm_clones+0x29>
 8048938:	55                   	push   %ebp
 8048939:	89 e5                	mov    %esp,%ebp
 804893b:	83 ec 14             	sub    $0x14,%esp
 804893e:	68 a0 c3 04 08       	push   $0x804c3a0
 8048943:	ff d0                	call   *%eax
 8048945:	83 c4 10             	add    $0x10,%esp
 8048948:	c9                   	leave  
 8048949:	f3 c3                	repz ret 
 804894b:	90                   	nop
 804894c:	8d 74 26 00          	lea    0x0(%esi,%eiz,1),%esi

08048950 <register_tm_clones>:
 8048950:	b8 a0 c3 04 08       	mov    $0x804c3a0,%eax
 8048955:	2d a0 c3 04 08       	sub    $0x804c3a0,%eax
 804895a:	c1 f8 02             	sar    $0x2,%eax
 804895d:	89 c2                	mov    %eax,%edx
 804895f:	c1 ea 1f             	shr    $0x1f,%edx
 8048962:	01 d0                	add    %edx,%eax
 8048964:	d1 f8                	sar    %eax
 8048966:	74 1b                	je     8048983 <register_tm_clones+0x33>
 8048968:	ba 00 00 00 00       	mov    $0x0,%edx
 804896d:	85 d2                	test   %edx,%edx
 804896f:	74 12                	je     8048983 <register_tm_clones+0x33>
 8048971:	55                   	push   %ebp
 8048972:	89 e5                	mov    %esp,%ebp
 8048974:	83 ec 10             	sub    $0x10,%esp
 8048977:	50                   	push   %eax
 8048978:	68 a0 c3 04 08       	push   $0x804c3a0
 804897d:	ff d2                	call   *%edx
 804897f:	83 c4 10             	add    $0x10,%esp
 8048982:	c9                   	leave  
 8048983:	f3 c3                	repz ret 
 8048985:	8d 74 26 00          	lea    0x0(%esi,%eiz,1),%esi
 8048989:	8d bc 27 00 00 00 00 	lea    0x0(%edi,%eiz,1),%edi

08048990 <__do_global_dtors_aux>:
 8048990:	80 3d c8 c3 04 08 00 	cmpb   $0x0,0x804c3c8
 8048997:	75 13                	jne    80489ac <__do_global_dtors_aux+0x1c>
 8048999:	55                   	push   %ebp
 804899a:	89 e5                	mov    %esp,%ebp
 804899c:	83 ec 08             	sub    $0x8,%esp
 804899f:	e8 7c ff ff ff       	call   8048920 <deregister_tm_clones>
 80489a4:	c6 05 c8 c3 04 08 01 	movb   $0x1,0x804c3c8
 80489ab:	c9                   	leave  
 80489ac:	f3 c3                	repz ret 
 80489ae:	66 90                	xchg   %ax,%ax

080489b0 <frame_dummy>:
 80489b0:	b8 10 bf 04 08       	mov    $0x804bf10,%eax
 80489b5:	8b 10                	mov    (%eax),%edx
 80489b7:	85 d2                	test   %edx,%edx
 80489b9:	75 05                	jne    80489c0 <frame_dummy+0x10>
 80489bb:	eb 93                	jmp    8048950 <register_tm_clones>
 80489bd:	8d 76 00             	lea    0x0(%esi),%esi
 80489c0:	ba 00 00 00 00       	mov    $0x0,%edx
 80489c5:	85 d2                	test   %edx,%edx
 80489c7:	74 f2                	je     80489bb <frame_dummy+0xb>
 80489c9:	55                   	push   %ebp
 80489ca:	89 e5                	mov    %esp,%ebp
 80489cc:	83 ec 14             	sub    $0x14,%esp
 80489cf:	50                   	push   %eax
 80489d0:	ff d2                	call   *%edx
 80489d2:	83 c4 10             	add    $0x10,%esp
 80489d5:	c9                   	leave  
 80489d6:	e9 75 ff ff ff       	jmp    8048950 <register_tm_clones>

080489db <main>:
 80489db:	8d 4c 24 04          	lea    0x4(%esp),%ecx
 80489df:	83 e4 f0             	and    $0xfffffff0,%esp
 80489e2:	ff 71 fc             	pushl  -0x4(%ecx)
 80489e5:	55                   	push   %ebp
 80489e6:	89 e5                	mov    %esp,%ebp
 80489e8:	53                   	push   %ebx
 80489e9:	51                   	push   %ecx
 80489ea:	8b 01                	mov    (%ecx),%eax
 80489ec:	8b 59 04             	mov    0x4(%ecx),%ebx
 80489ef:	83 f8 01             	cmp    $0x1,%eax
 80489f2:	0f 84 01 01 00 00    	je     8048af9 <main+0x11e>
 80489f8:	83 f8 02             	cmp    $0x2,%eax
 80489fb:	0f 85 24 01 00 00    	jne    8048b25 <main+0x14a>
 8048a01:	83 ec 08             	sub    $0x8,%esp
 8048a04:	68 e8 9e 04 08       	push   $0x8049ee8
 8048a09:	ff 73 04             	pushl  0x4(%ebx)
 8048a0c:	e8 0f fe ff ff       	call   8048820 <fopen@plt>
 8048a11:	a3 d0 c3 04 08       	mov    %eax,0x804c3d0
 8048a16:	83 c4 10             	add    $0x10,%esp
 8048a19:	85 c0                	test   %eax,%eax
 8048a1b:	0f 84 e7 00 00 00    	je     8048b08 <main+0x12d>
 8048a21:	e8 51 06 00 00       	call   8049077 <initialize_bomb>
 8048a26:	83 ec 0c             	sub    $0xc,%esp
 8048a29:	68 6c 9f 04 08       	push   $0x8049f6c
 8048a2e:	e8 8d fd ff ff       	call   80487c0 <puts@plt>
 8048a33:	c7 04 24 a8 9f 04 08 	movl   $0x8049fa8,(%esp)
 8048a3a:	e8 81 fd ff ff       	call   80487c0 <puts@plt>
 8048a3f:	e8 23 07 00 00       	call   8049167 <read_line>
 8048a44:	89 04 24             	mov    %eax,(%esp)
 8048a47:	e8 f6 00 00 00       	call   8048b42 <phase_1>
 8048a4c:	e8 15 08 00 00       	call   8049266 <phase_defused>
 8048a51:	c7 04 24 d4 9f 04 08 	movl   $0x8049fd4,(%esp)
 8048a58:	e8 63 fd ff ff       	call   80487c0 <puts@plt>
 8048a5d:	e8 05 07 00 00       	call   8049167 <read_line>
 8048a62:	89 04 24             	mov    %eax,(%esp)
 8048a65:	e8 fb 00 00 00       	call   8048b65 <phase_2>
 8048a6a:	e8 f7 07 00 00       	call   8049266 <phase_defused>
 8048a6f:	c7 04 24 21 9f 04 08 	movl   $0x8049f21,(%esp)
 8048a76:	e8 45 fd ff ff       	call   80487c0 <puts@plt>
 8048a7b:	e8 e7 06 00 00       	call   8049167 <read_line>
 8048a80:	89 04 24             	mov    %eax,(%esp)
 8048a83:	e8 4c 01 00 00       	call   8048bd4 <phase_3>
 8048a88:	e8 d9 07 00 00       	call   8049266 <phase_defused>
 8048a8d:	c7 04 24 3f 9f 04 08 	movl   $0x8049f3f,(%esp)
 8048a94:	e8 27 fd ff ff       	call   80487c0 <puts@plt>
 8048a99:	e8 c9 06 00 00       	call   8049167 <read_line>
 8048a9e:	89 04 24             	mov    %eax,(%esp)
 8048aa1:	e8 61 02 00 00       	call   8048d07 <phase_4>
 8048aa6:	e8 bb 07 00 00       	call   8049266 <phase_defused>
 8048aab:	c7 04 24 00 a0 04 08 	movl   $0x804a000,(%esp)
 8048ab2:	e8 09 fd ff ff       	call   80487c0 <puts@plt>
 8048ab7:	e8 ab 06 00 00       	call   8049167 <read_line>
 8048abc:	89 04 24             	mov    %eax,(%esp)
 8048abf:	e8 bc 02 00 00       	call   8048d80 <phase_5>
 8048ac4:	e8 9d 07 00 00       	call   8049266 <phase_defused>
 8048ac9:	c7 04 24 4e 9f 04 08 	movl   $0x8049f4e,(%esp)
 8048ad0:	e8 eb fc ff ff       	call   80487c0 <puts@plt>
 8048ad5:	e8 8d 06 00 00       	call   8049167 <read_line>
 8048ada:	89 04 24             	mov    %eax,(%esp)
 8048add:	e8 e6 02 00 00       	call   8048dc8 <phase_6>
 8048ae2:	e8 7f 07 00 00       	call   8049266 <phase_defused>
 8048ae7:	83 c4 10             	add    $0x10,%esp
 8048aea:	b8 00 00 00 00       	mov    $0x0,%eax
 8048aef:	8d 65 f8             	lea    -0x8(%ebp),%esp
 8048af2:	59                   	pop    %ecx
 8048af3:	5b                   	pop    %ebx
 8048af4:	5d                   	pop    %ebp
 8048af5:	8d 61 fc             	lea    -0x4(%ecx),%esp
 8048af8:	c3                   	ret    
 8048af9:	a1 c0 c3 04 08       	mov    0x804c3c0,%eax
 8048afe:	a3 d0 c3 04 08       	mov    %eax,0x804c3d0
 8048b03:	e9 19 ff ff ff       	jmp    8048a21 <main+0x46>
 8048b08:	ff 73 04             	pushl  0x4(%ebx)
 8048b0b:	ff 33                	pushl  (%ebx)
 8048b0d:	68 ea 9e 04 08       	push   $0x8049eea
 8048b12:	6a 01                	push   $0x1
 8048b14:	e8 27 fd ff ff       	call   8048840 <__printf_chk@plt>
 8048b19:	c7 04 24 08 00 00 00 	movl   $0x8,(%esp)
 8048b20:	e8 bb fc ff ff       	call   80487e0 <exit@plt>
 8048b25:	83 ec 04             	sub    $0x4,%esp
 8048b28:	ff 33                	pushl  (%ebx)
 8048b2a:	68 07 9f 04 08       	push   $0x8049f07
 8048b2f:	6a 01                	push   $0x1
 8048b31:	e8 0a fd ff ff       	call   8048840 <__printf_chk@plt>
 8048b36:	c7 04 24 08 00 00 00 	movl   $0x8,(%esp)
 8048b3d:	e8 9e fc ff ff       	call   80487e0 <exit@plt>

08048b42 <phase_1>:
 8048b42:	83 ec 14             	sub    $0x14,%esp
 8048b45:	68 24 a0 04 08       	push   $0x804a024
 8048b4a:	ff 74 24 1c          	pushl  0x1c(%esp)
 8048b4e:	e8 bf 04 00 00       	call   8049012 <strings_not_equal>
 8048b53:	83 c4 10             	add    $0x10,%esp
 8048b56:	85 c0                	test   %eax,%eax
 8048b58:	75 04                	jne    8048b5e <phase_1+0x1c>
 8048b5a:	83 c4 0c             	add    $0xc,%esp
 8048b5d:	c3                   	ret    
 8048b5e:	e8 a4 05 00 00       	call   8049107 <explode_bomb>
 8048b63:	eb f5                	jmp    8048b5a <phase_1+0x18>

08048b65 <phase_2>:
 8048b65:	56                   	push   %esi
 8048b66:	53                   	push   %ebx
 8048b67:	83 ec 2c             	sub    $0x2c,%esp
 8048b6a:	65 a1 14 00 00 00    	mov    %gs:0x14,%eax
 8048b70:	89 44 24 24          	mov    %eax,0x24(%esp)
 8048b74:	31 c0                	xor    %eax,%eax
 8048b76:	8d 44 24 0c          	lea    0xc(%esp),%eax
 8048b7a:	50                   	push   %eax
 8048b7b:	ff 74 24 3c          	pushl  0x3c(%esp)
 8048b7f:	e8 a8 05 00 00       	call   804912c <read_six_numbers>
 8048b84:	83 c4 10             	add    $0x10,%esp
 8048b87:	83 7c 24 04 00       	cmpl   $0x0,0x4(%esp)
 8048b8c:	75 07                	jne    8048b95 <phase_2+0x30>
 8048b8e:	83 7c 24 08 01       	cmpl   $0x1,0x8(%esp)
 8048b93:	74 05                	je     8048b9a <phase_2+0x35>
 8048b95:	e8 6d 05 00 00       	call   8049107 <explode_bomb>
 8048b9a:	8d 5c 24 04          	lea    0x4(%esp),%ebx
 8048b9e:	8d 74 24 14          	lea    0x14(%esp),%esi
 8048ba2:	eb 07                	jmp    8048bab <phase_2+0x46>
 8048ba4:	83 c3 04             	add    $0x4,%ebx
 8048ba7:	39 f3                	cmp    %esi,%ebx
 8048ba9:	74 11                	je     8048bbc <phase_2+0x57>
 8048bab:	8b 43 04             	mov    0x4(%ebx),%eax
 8048bae:	03 03                	add    (%ebx),%eax
 8048bb0:	39 43 08             	cmp    %eax,0x8(%ebx)
 8048bb3:	74 ef                	je     8048ba4 <phase_2+0x3f>
 8048bb5:	e8 4d 05 00 00       	call   8049107 <explode_bomb>
 8048bba:	eb e8                	jmp    8048ba4 <phase_2+0x3f>
 8048bbc:	8b 44 24 1c          	mov    0x1c(%esp),%eax
 8048bc0:	65 33 05 14 00 00 00 	xor    %gs:0x14,%eax
 8048bc7:	75 06                	jne    8048bcf <phase_2+0x6a>
 8048bc9:	83 c4 24             	add    $0x24,%esp
 8048bcc:	5b                   	pop    %ebx
 8048bcd:	5e                   	pop    %esi
 8048bce:	c3                   	ret    
 8048bcf:	e8 bc fb ff ff       	call   8048790 <__stack_chk_fail@plt>

08048bd4 <phase_3>:
 8048bd4:	83 ec 1c             	sub    $0x1c,%esp
 8048bd7:	65 a1 14 00 00 00    	mov    %gs:0x14,%eax
 8048bdd:	89 44 24 0c          	mov    %eax,0xc(%esp)
 8048be1:	31 c0                	xor    %eax,%eax
 8048be3:	8d 44 24 08          	lea    0x8(%esp),%eax
 8048be7:	50                   	push   %eax
 8048be8:	8d 44 24 08          	lea    0x8(%esp),%eax
 8048bec:	50                   	push   %eax
 8048bed:	68 ef a1 04 08       	push   $0x804a1ef
 8048bf2:	ff 74 24 2c          	pushl  0x2c(%esp)
 8048bf6:	e8 15 fc ff ff       	call   8048810 <__isoc99_sscanf@plt>
 8048bfb:	83 c4 10             	add    $0x10,%esp
 8048bfe:	83 f8 01             	cmp    $0x1,%eax
 8048c01:	7e 16                	jle    8048c19 <phase_3+0x45>
 8048c03:	83 7c 24 04 07       	cmpl   $0x7,0x4(%esp)
 8048c08:	0f 87 8e 00 00 00    	ja     8048c9c <phase_3+0xc8>
 8048c0e:	8b 44 24 04          	mov    0x4(%esp),%eax
 8048c12:	ff 24 85 80 a0 04 08 	jmp    *0x804a080(,%eax,4)
 8048c19:	e8 e9 04 00 00       	call   8049107 <explode_bomb>
 8048c1e:	eb e3                	jmp    8048c03 <phase_3+0x2f>
 8048c20:	b8 6c 03 00 00       	mov    $0x36c,%eax
 8048c25:	eb 05                	jmp    8048c2c <phase_3+0x58>
 8048c27:	b8 00 00 00 00       	mov    $0x0,%eax
 8048c2c:	2d 82 02 00 00       	sub    $0x282,%eax
 8048c31:	05 bd 00 00 00       	add    $0xbd,%eax
 8048c36:	2d c4 01 00 00       	sub    $0x1c4,%eax
 8048c3b:	05 c4 01 00 00       	add    $0x1c4,%eax
 8048c40:	2d c4 01 00 00       	sub    $0x1c4,%eax
 8048c45:	05 c4 01 00 00       	add    $0x1c4,%eax
 8048c4a:	2d c4 01 00 00       	sub    $0x1c4,%eax
 8048c4f:	83 7c 24 04 05       	cmpl   $0x5,0x4(%esp)
 8048c54:	7f 06                	jg     8048c5c <phase_3+0x88>
 8048c56:	3b 44 24 08          	cmp    0x8(%esp),%eax
 8048c5a:	74 05                	je     8048c61 <phase_3+0x8d>
 8048c5c:	e8 a6 04 00 00       	call   8049107 <explode_bomb>
 8048c61:	8b 44 24 0c          	mov    0xc(%esp),%eax
 8048c65:	65 33 05 14 00 00 00 	xor    %gs:0x14,%eax
 8048c6c:	75 3a                	jne    8048ca8 <phase_3+0xd4>
 8048c6e:	83 c4 1c             	add    $0x1c,%esp
 8048c71:	c3                   	ret    
 8048c72:	b8 00 00 00 00       	mov    $0x0,%eax
 8048c77:	eb b8                	jmp    8048c31 <phase_3+0x5d>
 8048c79:	b8 00 00 00 00       	mov    $0x0,%eax
 8048c7e:	eb b6                	jmp    8048c36 <phase_3+0x62>
 8048c80:	b8 00 00 00 00       	mov    $0x0,%eax
 8048c85:	eb b4                	jmp    8048c3b <phase_3+0x67>
 8048c87:	b8 00 00 00 00       	mov    $0x0,%eax
 8048c8c:	eb b2                	jmp    8048c40 <phase_3+0x6c>
 8048c8e:	b8 00 00 00 00       	mov    $0x0,%eax
 8048c93:	eb b0                	jmp    8048c45 <phase_3+0x71>
 8048c95:	b8 00 00 00 00       	mov    $0x0,%eax
 8048c9a:	eb ae                	jmp    8048c4a <phase_3+0x76>
 8048c9c:	e8 66 04 00 00       	call   8049107 <explode_bomb>
 8048ca1:	b8 00 00 00 00       	mov    $0x0,%eax
 8048ca6:	eb a7                	jmp    8048c4f <phase_3+0x7b>
 8048ca8:	e8 e3 fa ff ff       	call   8048790 <__stack_chk_fail@plt>

08048cad <func4>:
 8048cad:	56                   	push   %esi
 8048cae:	53                   	push   %ebx
 8048caf:	83 ec 04             	sub    $0x4,%esp
 8048cb2:	8b 44 24 10          	mov    0x10(%esp),%eax
 8048cb6:	8b 54 24 14          	mov    0x14(%esp),%edx
 8048cba:	8b 4c 24 18          	mov    0x18(%esp),%ecx
 8048cbe:	89 ce                	mov    %ecx,%esi
 8048cc0:	29 d6                	sub    %edx,%esi
 8048cc2:	89 f3                	mov    %esi,%ebx
 8048cc4:	c1 eb 1f             	shr    $0x1f,%ebx
 8048cc7:	01 f3                	add    %esi,%ebx
 8048cc9:	d1 fb                	sar    %ebx
 8048ccb:	01 d3                	add    %edx,%ebx
 8048ccd:	39 c3                	cmp    %eax,%ebx
 8048ccf:	7f 0c                	jg     8048cdd <func4+0x30>
 8048cd1:	39 c3                	cmp    %eax,%ebx
 8048cd3:	7c 1d                	jl     8048cf2 <func4+0x45>
 8048cd5:	89 d8                	mov    %ebx,%eax
 8048cd7:	83 c4 04             	add    $0x4,%esp
 8048cda:	5b                   	pop    %ebx
 8048cdb:	5e                   	pop    %esi
 8048cdc:	c3                   	ret    
 8048cdd:	83 ec 04             	sub    $0x4,%esp
 8048ce0:	8d 4b ff             	lea    -0x1(%ebx),%ecx
 8048ce3:	51                   	push   %ecx
 8048ce4:	52                   	push   %edx
 8048ce5:	50                   	push   %eax
 8048ce6:	e8 c2 ff ff ff       	call   8048cad <func4>
 8048ceb:	83 c4 10             	add    $0x10,%esp
 8048cee:	01 c3                	add    %eax,%ebx
 8048cf0:	eb e3                	jmp    8048cd5 <func4+0x28>
 8048cf2:	83 ec 04             	sub    $0x4,%esp
 8048cf5:	51                   	push   %ecx
 8048cf6:	8d 53 01             	lea    0x1(%ebx),%edx
 8048cf9:	52                   	push   %edx
 8048cfa:	50                   	push   %eax
 8048cfb:	e8 ad ff ff ff       	call   8048cad <func4>
 8048d00:	83 c4 10             	add    $0x10,%esp
 8048d03:	01 c3                	add    %eax,%ebx
 8048d05:	eb ce                	jmp    8048cd5 <func4+0x28>

08048d07 <phase_4>:
 8048d07:	83 ec 1c             	sub    $0x1c,%esp
 8048d0a:	65 a1 14 00 00 00    	mov    %gs:0x14,%eax
 8048d10:	89 44 24 0c          	mov    %eax,0xc(%esp)
 8048d14:	31 c0                	xor    %eax,%eax
 8048d16:	8d 44 24 08          	lea    0x8(%esp),%eax
 8048d1a:	50                   	push   %eax
 8048d1b:	8d 44 24 08          	lea    0x8(%esp),%eax
 8048d1f:	50                   	push   %eax
 8048d20:	68 ef a1 04 08       	push   $0x804a1ef
 8048d25:	ff 74 24 2c          	pushl  0x2c(%esp)
 8048d29:	e8 e2 fa ff ff       	call   8048810 <__isoc99_sscanf@plt>
 8048d2e:	83 c4 10             	add    $0x10,%esp
 8048d31:	83 f8 02             	cmp    $0x2,%eax
 8048d34:	74 33                	je     8048d69 <phase_4+0x62>
 8048d36:	e8 cc 03 00 00       	call   8049107 <explode_bomb>
 8048d3b:	83 ec 04             	sub    $0x4,%esp
 8048d3e:	6a 0e                	push   $0xe
 8048d40:	6a 00                	push   $0x0
 8048d42:	ff 74 24 10          	pushl  0x10(%esp)
 8048d46:	e8 62 ff ff ff       	call   8048cad <func4>
 8048d4b:	83 c4 10             	add    $0x10,%esp
 8048d4e:	83 f8 12             	cmp    $0x12,%eax
 8048d51:	74 1f                	je     8048d72 <phase_4+0x6b>
 8048d53:	e8 af 03 00 00       	call   8049107 <explode_bomb>
 8048d58:	8b 44 24 0c          	mov    0xc(%esp),%eax
 8048d5c:	65 33 05 14 00 00 00 	xor    %gs:0x14,%eax
 8048d63:	75 16                	jne    8048d7b <phase_4+0x74>
 8048d65:	83 c4 1c             	add    $0x1c,%esp
 8048d68:	c3                   	ret    
 8048d69:	83 7c 24 04 0e       	cmpl   $0xe,0x4(%esp)
 8048d6e:	76 cb                	jbe    8048d3b <phase_4+0x34>
 8048d70:	eb c4                	jmp    8048d36 <phase_4+0x2f>
 8048d72:	83 7c 24 08 12       	cmpl   $0x12,0x8(%esp)
 8048d77:	75 da                	jne    8048d53 <phase_4+0x4c>
 8048d79:	eb dd                	jmp    8048d58 <phase_4+0x51>
 8048d7b:	e8 10 fa ff ff       	call   8048790 <__stack_chk_fail@plt>

08048d80 <phase_5>:
 8048d80:	53                   	push   %ebx
 8048d81:	83 ec 14             	sub    $0x14,%esp
 8048d84:	8b 5c 24 1c          	mov    0x1c(%esp),%ebx
 8048d88:	53                   	push   %ebx
 8048d89:	e8 65 02 00 00       	call   8048ff3 <string_length>
 8048d8e:	83 c4 10             	add    $0x10,%esp
 8048d91:	83 f8 06             	cmp    $0x6,%eax
 8048d94:	74 05                	je     8048d9b <phase_5+0x1b>
 8048d96:	e8 6c 03 00 00       	call   8049107 <explode_bomb>
 8048d9b:	89 d8                	mov    %ebx,%eax
 8048d9d:	83 c3 06             	add    $0x6,%ebx
 8048da0:	b9 00 00 00 00       	mov    $0x0,%ecx
 8048da5:	0f b6 10             	movzbl (%eax),%edx
 8048da8:	83 e2 0f             	and    $0xf,%edx
 8048dab:	03 0c 95 a0 a0 04 08 	add    0x804a0a0(,%edx,4),%ecx
 8048db2:	83 c0 01             	add    $0x1,%eax
 8048db5:	39 d8                	cmp    %ebx,%eax
 8048db7:	75 ec                	jne    8048da5 <phase_5+0x25>
 8048db9:	83 f9 36             	cmp    $0x36,%ecx
 8048dbc:	74 05                	je     8048dc3 <phase_5+0x43>
 8048dbe:	e8 44 03 00 00       	call   8049107 <explode_bomb>
 8048dc3:	83 c4 08             	add    $0x8,%esp
 8048dc6:	5b                   	pop    %ebx
 8048dc7:	c3                   	ret    

08048dc8 <phase_6>:
 8048dc8:	56                   	push   %esi
 8048dc9:	53                   	push   %ebx
 8048dca:	83 ec 4c             	sub    $0x4c,%esp
 8048dcd:	65 a1 14 00 00 00    	mov    %gs:0x14,%eax
 8048dd3:	89 44 24 44          	mov    %eax,0x44(%esp)
 8048dd7:	31 c0                	xor    %eax,%eax
 8048dd9:	8d 44 24 14          	lea    0x14(%esp),%eax
 8048ddd:	50                   	push   %eax
 8048dde:	ff 74 24 5c          	pushl  0x5c(%esp)
 8048de2:	e8 45 03 00 00       	call   804912c <read_six_numbers>
 8048de7:	83 c4 10             	add    $0x10,%esp
 8048dea:	be 00 00 00 00       	mov    $0x0,%esi
 8048def:	eb 1c                	jmp    8048e0d <phase_6+0x45>
 8048df1:	83 c6 01             	add    $0x1,%esi
 8048df4:	83 fe 06             	cmp    $0x6,%esi
 8048df7:	74 2e                	je     8048e27 <phase_6+0x5f>
 8048df9:	89 f3                	mov    %esi,%ebx
 8048dfb:	8b 44 9c 0c          	mov    0xc(%esp,%ebx,4),%eax
 8048dff:	39 44 b4 08          	cmp    %eax,0x8(%esp,%esi,4)
 8048e03:	74 1b                	je     8048e20 <phase_6+0x58>
 8048e05:	83 c3 01             	add    $0x1,%ebx
 8048e08:	83 fb 05             	cmp    $0x5,%ebx
 8048e0b:	7e ee                	jle    8048dfb <phase_6+0x33>
 8048e0d:	8b 44 b4 0c          	mov    0xc(%esp,%esi,4),%eax
 8048e11:	83 e8 01             	sub    $0x1,%eax
 8048e14:	83 f8 05             	cmp    $0x5,%eax
 8048e17:	76 d8                	jbe    8048df1 <phase_6+0x29>
 8048e19:	e8 e9 02 00 00       	call   8049107 <explode_bomb>
 8048e1e:	eb d1                	jmp    8048df1 <phase_6+0x29>
 8048e20:	e8 e2 02 00 00       	call   8049107 <explode_bomb>
 8048e25:	eb de                	jmp    8048e05 <phase_6+0x3d>
 8048e27:	8d 44 24 0c          	lea    0xc(%esp),%eax
 8048e2b:	8d 5c 24 24          	lea    0x24(%esp),%ebx
 8048e2f:	b9 07 00 00 00       	mov    $0x7,%ecx
 8048e34:	89 ca                	mov    %ecx,%edx
 8048e36:	2b 10                	sub    (%eax),%edx
 8048e38:	89 10                	mov    %edx,(%eax)
 8048e3a:	83 c0 04             	add    $0x4,%eax
 8048e3d:	39 c3                	cmp    %eax,%ebx
 8048e3f:	75 f3                	jne    8048e34 <phase_6+0x6c>
 8048e41:	bb 00 00 00 00       	mov    $0x0,%ebx
 8048e46:	89 de                	mov    %ebx,%esi
 8048e48:	8b 4c 9c 0c          	mov    0xc(%esp,%ebx,4),%ecx
 8048e4c:	b8 01 00 00 00       	mov    $0x1,%eax
 8048e51:	ba 3c c1 04 08       	mov    $0x804c13c,%edx
 8048e56:	83 f9 01             	cmp    $0x1,%ecx
 8048e59:	7e 0a                	jle    8048e65 <phase_6+0x9d>
 8048e5b:	8b 52 08             	mov    0x8(%edx),%edx
 8048e5e:	83 c0 01             	add    $0x1,%eax
 8048e61:	39 c8                	cmp    %ecx,%eax
 8048e63:	75 f6                	jne    8048e5b <phase_6+0x93>
 8048e65:	89 54 b4 24          	mov    %edx,0x24(%esp,%esi,4)
 8048e69:	83 c3 01             	add    $0x1,%ebx
 8048e6c:	83 fb 06             	cmp    $0x6,%ebx
 8048e6f:	75 d5                	jne    8048e46 <phase_6+0x7e>
 8048e71:	8b 5c 24 24          	mov    0x24(%esp),%ebx
 8048e75:	89 d9                	mov    %ebx,%ecx
 8048e77:	b8 01 00 00 00       	mov    $0x1,%eax
 8048e7c:	8b 54 84 24          	mov    0x24(%esp,%eax,4),%edx
 8048e80:	89 51 08             	mov    %edx,0x8(%ecx)
 8048e83:	83 c0 01             	add    $0x1,%eax
 8048e86:	89 d1                	mov    %edx,%ecx
 8048e88:	83 f8 06             	cmp    $0x6,%eax
 8048e8b:	75 ef                	jne    8048e7c <phase_6+0xb4>
 8048e8d:	c7 42 08 00 00 00 00 	movl   $0x0,0x8(%edx)
 8048e94:	be 05 00 00 00       	mov    $0x5,%esi
 8048e99:	eb 08                	jmp    8048ea3 <phase_6+0xdb>
 8048e9b:	8b 5b 08             	mov    0x8(%ebx),%ebx
 8048e9e:	83 ee 01             	sub    $0x1,%esi
 8048ea1:	74 10                	je     8048eb3 <phase_6+0xeb>
 8048ea3:	8b 43 08             	mov    0x8(%ebx),%eax
 8048ea6:	8b 00                	mov    (%eax),%eax
 8048ea8:	39 03                	cmp    %eax,(%ebx)
 8048eaa:	7d ef                	jge    8048e9b <phase_6+0xd3>
 8048eac:	e8 56 02 00 00       	call   8049107 <explode_bomb>
 8048eb1:	eb e8                	jmp    8048e9b <phase_6+0xd3>
 8048eb3:	8b 44 24 3c          	mov    0x3c(%esp),%eax
 8048eb7:	65 33 05 14 00 00 00 	xor    %gs:0x14,%eax
 8048ebe:	75 06                	jne    8048ec6 <phase_6+0xfe>
 8048ec0:	83 c4 44             	add    $0x44,%esp
 8048ec3:	5b                   	pop    %ebx
 8048ec4:	5e                   	pop    %esi
 8048ec5:	c3                   	ret    
 8048ec6:	e8 c5 f8 ff ff       	call   8048790 <__stack_chk_fail@plt>

08048ecb <fun7>:
 8048ecb:	53                   	push   %ebx
 8048ecc:	83 ec 08             	sub    $0x8,%esp
 8048ecf:	8b 54 24 10          	mov    0x10(%esp),%edx
 8048ed3:	8b 4c 24 14          	mov    0x14(%esp),%ecx
 8048ed7:	85 d2                	test   %edx,%edx
 8048ed9:	74 3a                	je     8048f15 <fun7+0x4a>
 8048edb:	8b 1a                	mov    (%edx),%ebx
 8048edd:	39 cb                	cmp    %ecx,%ebx
 8048edf:	7f 21                	jg     8048f02 <fun7+0x37>
 8048ee1:	b8 00 00 00 00       	mov    $0x0,%eax
 8048ee6:	39 cb                	cmp    %ecx,%ebx
 8048ee8:	74 13                	je     8048efd <fun7+0x32>
 8048eea:	83 ec 08             	sub    $0x8,%esp
 8048eed:	51                   	push   %ecx
 8048eee:	ff 72 08             	pushl  0x8(%edx)
 8048ef1:	e8 d5 ff ff ff       	call   8048ecb <fun7>
 8048ef6:	83 c4 10             	add    $0x10,%esp
 8048ef9:	8d 44 00 01          	lea    0x1(%eax,%eax,1),%eax
 8048efd:	83 c4 08             	add    $0x8,%esp
 8048f00:	5b                   	pop    %ebx
 8048f01:	c3                   	ret    
 8048f02:	83 ec 08             	sub    $0x8,%esp
 8048f05:	51                   	push   %ecx
 8048f06:	ff 72 04             	pushl  0x4(%edx)
 8048f09:	e8 bd ff ff ff       	call   8048ecb <fun7>
 8048f0e:	83 c4 10             	add    $0x10,%esp
 8048f11:	01 c0                	add    %eax,%eax
 8048f13:	eb e8                	jmp    8048efd <fun7+0x32>
 8048f15:	b8 ff ff ff ff       	mov    $0xffffffff,%eax
 8048f1a:	eb e1                	jmp    8048efd <fun7+0x32>

08048f1c <secret_phase>:
 8048f1c:	53                   	push   %ebx
 8048f1d:	83 ec 08             	sub    $0x8,%esp
 8048f20:	e8 42 02 00 00       	call   8049167 <read_line>
 8048f25:	83 ec 04             	sub    $0x4,%esp
 8048f28:	6a 0a                	push   $0xa
 8048f2a:	6a 00                	push   $0x0
 8048f2c:	50                   	push   %eax
 8048f2d:	e8 4e f9 ff ff       	call   8048880 <strtol@plt>
 8048f32:	89 c3                	mov    %eax,%ebx
 8048f34:	8d 40 ff             	lea    -0x1(%eax),%eax
 8048f37:	83 c4 10             	add    $0x10,%esp
 8048f3a:	3d e8 03 00 00       	cmp    $0x3e8,%eax
 8048f3f:	77 32                	ja     8048f73 <secret_phase+0x57>
 8048f41:	83 ec 08             	sub    $0x8,%esp
 8048f44:	53                   	push   %ebx
 8048f45:	68 88 c0 04 08       	push   $0x804c088
 8048f4a:	e8 7c ff ff ff       	call   8048ecb <fun7>
 8048f4f:	83 c4 10             	add    $0x10,%esp
 8048f52:	83 f8 03             	cmp    $0x3,%eax
 8048f55:	74 05                	je     8048f5c <secret_phase+0x40>
 8048f57:	e8 ab 01 00 00       	call   8049107 <explode_bomb>
 8048f5c:	83 ec 0c             	sub    $0xc,%esp
 8048f5f:	68 44 a0 04 08       	push   $0x804a044
 8048f64:	e8 57 f8 ff ff       	call   80487c0 <puts@plt>
 8048f69:	e8 f8 02 00 00       	call   8049266 <phase_defused>
 8048f6e:	83 c4 18             	add    $0x18,%esp
 8048f71:	5b                   	pop    %ebx
 8048f72:	c3                   	ret    
 8048f73:	e8 8f 01 00 00       	call   8049107 <explode_bomb>
 8048f78:	eb c7                	jmp    8048f41 <secret_phase+0x25>

08048f7a <sig_handler>:
 8048f7a:	83 ec 18             	sub    $0x18,%esp
 8048f7d:	68 e0 a0 04 08       	push   $0x804a0e0
 8048f82:	e8 39 f8 ff ff       	call   80487c0 <puts@plt>
 8048f87:	c7 04 24 03 00 00 00 	movl   $0x3,(%esp)
 8048f8e:	e8 dd f7 ff ff       	call   8048770 <sleep@plt>
 8048f93:	83 c4 08             	add    $0x8,%esp
 8048f96:	68 a2 a1 04 08       	push   $0x804a1a2
 8048f9b:	6a 01                	push   $0x1
 8048f9d:	e8 9e f8 ff ff       	call   8048840 <__printf_chk@plt>
 8048fa2:	83 c4 04             	add    $0x4,%esp
 8048fa5:	ff 35 c4 c3 04 08    	pushl  0x804c3c4
 8048fab:	e8 90 f7 ff ff       	call   8048740 <fflush@plt>
 8048fb0:	c7 04 24 01 00 00 00 	movl   $0x1,(%esp)
 8048fb7:	e8 b4 f7 ff ff       	call   8048770 <sleep@plt>
 8048fbc:	c7 04 24 aa a1 04 08 	movl   $0x804a1aa,(%esp)
 8048fc3:	e8 f8 f7 ff ff       	call   80487c0 <puts@plt>
 8048fc8:	c7 04 24 10 00 00 00 	movl   $0x10,(%esp)
 8048fcf:	e8 0c f8 ff ff       	call   80487e0 <exit@plt>

08048fd4 <invalid_phase>:
 8048fd4:	83 ec 10             	sub    $0x10,%esp
 8048fd7:	ff 74 24 14          	pushl  0x14(%esp)
 8048fdb:	68 b2 a1 04 08       	push   $0x804a1b2
 8048fe0:	6a 01                	push   $0x1
 8048fe2:	e8 59 f8 ff ff       	call   8048840 <__printf_chk@plt>
 8048fe7:	c7 04 24 08 00 00 00 	movl   $0x8,(%esp)
 8048fee:	e8 ed f7 ff ff       	call   80487e0 <exit@plt>

08048ff3 <string_length>:
 8048ff3:	8b 54 24 04          	mov    0x4(%esp),%edx
 8048ff7:	80 3a 00             	cmpb   $0x0,(%edx)
 8048ffa:	74 10                	je     804900c <string_length+0x19>
 8048ffc:	b8 00 00 00 00       	mov    $0x0,%eax
 8049001:	83 c0 01             	add    $0x1,%eax
 8049004:	80 3c 02 00          	cmpb   $0x0,(%edx,%eax,1)
 8049008:	75 f7                	jne    8049001 <string_length+0xe>
 804900a:	f3 c3                	repz ret 
 804900c:	b8 00 00 00 00       	mov    $0x0,%eax
 8049011:	c3                   	ret    

08049012 <strings_not_equal>:
 8049012:	57                   	push   %edi
 8049013:	56                   	push   %esi
 8049014:	53                   	push   %ebx
 8049015:	8b 5c 24 10          	mov    0x10(%esp),%ebx
 8049019:	8b 74 24 14          	mov    0x14(%esp),%esi
 804901d:	53                   	push   %ebx
 804901e:	e8 d0 ff ff ff       	call   8048ff3 <string_length>
 8049023:	89 c7                	mov    %eax,%edi
 8049025:	89 34 24             	mov    %esi,(%esp)
 8049028:	e8 c6 ff ff ff       	call   8048ff3 <string_length>
 804902d:	83 c4 04             	add    $0x4,%esp
 8049030:	ba 01 00 00 00       	mov    $0x1,%edx
 8049035:	39 c7                	cmp    %eax,%edi
 8049037:	74 06                	je     804903f <strings_not_equal+0x2d>
 8049039:	89 d0                	mov    %edx,%eax
 804903b:	5b                   	pop    %ebx
 804903c:	5e                   	pop    %esi
 804903d:	5f                   	pop    %edi
 804903e:	c3                   	ret    
 804903f:	0f b6 03             	movzbl (%ebx),%eax
 8049042:	84 c0                	test   %al,%al
 8049044:	74 23                	je     8049069 <strings_not_equal+0x57>
 8049046:	3a 06                	cmp    (%esi),%al
 8049048:	75 26                	jne    8049070 <strings_not_equal+0x5e>
 804904a:	83 c3 01             	add    $0x1,%ebx
 804904d:	83 c6 01             	add    $0x1,%esi
 8049050:	0f b6 03             	movzbl (%ebx),%eax
 8049053:	84 c0                	test   %al,%al
 8049055:	74 0b                	je     8049062 <strings_not_equal+0x50>
 8049057:	3a 06                	cmp    (%esi),%al
 8049059:	74 ef                	je     804904a <strings_not_equal+0x38>
 804905b:	ba 01 00 00 00       	mov    $0x1,%edx
 8049060:	eb d7                	jmp    8049039 <strings_not_equal+0x27>
 8049062:	ba 00 00 00 00       	mov    $0x0,%edx
 8049067:	eb d0                	jmp    8049039 <strings_not_equal+0x27>
 8049069:	ba 00 00 00 00       	mov    $0x0,%edx
 804906e:	eb c9                	jmp    8049039 <strings_not_equal+0x27>
 8049070:	ba 01 00 00 00       	mov    $0x1,%edx
 8049075:	eb c2                	jmp    8049039 <strings_not_equal+0x27>

08049077 <initialize_bomb>:
 8049077:	83 ec 14             	sub    $0x14,%esp
 804907a:	68 7a 8f 04 08       	push   $0x8048f7a
 804907f:	6a 02                	push   $0x2
 8049081:	e8 da f6 ff ff       	call   8048760 <signal@plt>
 8049086:	83 c4 1c             	add    $0x1c,%esp
 8049089:	c3                   	ret    

0804908a <initialize_bomb_solve>:
 804908a:	f3 c3                	repz ret 

0804908c <blank_line>:
 804908c:	56                   	push   %esi
 804908d:	53                   	push   %ebx
 804908e:	83 ec 04             	sub    $0x4,%esp
 8049091:	8b 74 24 10          	mov    0x10(%esp),%esi
 8049095:	0f b6 1e             	movzbl (%esi),%ebx
 8049098:	84 db                	test   %bl,%bl
 804909a:	74 1b                	je     80490b7 <blank_line+0x2b>
 804909c:	e8 0f f8 ff ff       	call   80488b0 <__ctype_b_loc@plt>
 80490a1:	83 c6 01             	add    $0x1,%esi
 80490a4:	0f be db             	movsbl %bl,%ebx
 80490a7:	8b 00                	mov    (%eax),%eax
 80490a9:	f6 44 58 01 20       	testb  $0x20,0x1(%eax,%ebx,2)
 80490ae:	75 e5                	jne    8049095 <blank_line+0x9>
 80490b0:	b8 00 00 00 00       	mov    $0x0,%eax
 80490b5:	eb 05                	jmp    80490bc <blank_line+0x30>
 80490b7:	b8 01 00 00 00       	mov    $0x1,%eax
 80490bc:	83 c4 04             	add    $0x4,%esp
 80490bf:	5b                   	pop    %ebx
 80490c0:	5e                   	pop    %esi
 80490c1:	c3                   	ret    

080490c2 <skip>:
 80490c2:	53                   	push   %ebx
 80490c3:	83 ec 08             	sub    $0x8,%esp
 80490c6:	83 ec 04             	sub    $0x4,%esp
 80490c9:	ff 35 d0 c3 04 08    	pushl  0x804c3d0
 80490cf:	6a 50                	push   $0x50
 80490d1:	a1 cc c3 04 08       	mov    0x804c3cc,%eax
 80490d6:	8d 04 80             	lea    (%eax,%eax,4),%eax
 80490d9:	c1 e0 04             	shl    $0x4,%eax
 80490dc:	05 e0 c3 04 08       	add    $0x804c3e0,%eax
 80490e1:	50                   	push   %eax
 80490e2:	e8 69 f6 ff ff       	call   8048750 <fgets@plt>
 80490e7:	89 c3                	mov    %eax,%ebx
 80490e9:	83 c4 10             	add    $0x10,%esp
 80490ec:	85 c0                	test   %eax,%eax
 80490ee:	74 10                	je     8049100 <skip+0x3e>
 80490f0:	83 ec 0c             	sub    $0xc,%esp
 80490f3:	50                   	push   %eax
 80490f4:	e8 93 ff ff ff       	call   804908c <blank_line>
 80490f9:	83 c4 10             	add    $0x10,%esp
 80490fc:	85 c0                	test   %eax,%eax
 80490fe:	75 c6                	jne    80490c6 <skip+0x4>
 8049100:	89 d8                	mov    %ebx,%eax
 8049102:	83 c4 08             	add    $0x8,%esp
 8049105:	5b                   	pop    %ebx
 8049106:	c3                   	ret    

08049107 <explode_bomb>:
 8049107:	83 ec 18             	sub    $0x18,%esp
 804910a:	68 c3 a1 04 08       	push   $0x804a1c3
 804910f:	e8 ac f6 ff ff       	call   80487c0 <puts@plt>
 8049114:	c7 04 24 cc a1 04 08 	movl   $0x804a1cc,(%esp)
 804911b:	e8 a0 f6 ff ff       	call   80487c0 <puts@plt>
 8049120:	c7 04 24 08 00 00 00 	movl   $0x8,(%esp)
 8049127:	e8 b4 f6 ff ff       	call   80487e0 <exit@plt>

0804912c <read_six_numbers>:
 804912c:	83 ec 0c             	sub    $0xc,%esp
 804912f:	8b 44 24 14          	mov    0x14(%esp),%eax
 8049133:	8d 50 14             	lea    0x14(%eax),%edx
 8049136:	52                   	push   %edx
 8049137:	8d 50 10             	lea    0x10(%eax),%edx
 804913a:	52                   	push   %edx
 804913b:	8d 50 0c             	lea    0xc(%eax),%edx
 804913e:	52                   	push   %edx
 804913f:	8d 50 08             	lea    0x8(%eax),%edx
 8049142:	52                   	push   %edx
 8049143:	8d 50 04             	lea    0x4(%eax),%edx
 8049146:	52                   	push   %edx
 8049147:	50                   	push   %eax
 8049148:	68 e3 a1 04 08       	push   $0x804a1e3
 804914d:	ff 74 24 2c          	pushl  0x2c(%esp)
 8049151:	e8 ba f6 ff ff       	call   8048810 <__isoc99_sscanf@plt>
 8049156:	83 c4 20             	add    $0x20,%esp
 8049159:	83 f8 05             	cmp    $0x5,%eax
 804915c:	7e 04                	jle    8049162 <read_six_numbers+0x36>
 804915e:	83 c4 0c             	add    $0xc,%esp
 8049161:	c3                   	ret    
 8049162:	e8 a0 ff ff ff       	call   8049107 <explode_bomb>

08049167 <read_line>:
 8049167:	57                   	push   %edi
 8049168:	56                   	push   %esi
 8049169:	53                   	push   %ebx
 804916a:	e8 53 ff ff ff       	call   80490c2 <skip>
 804916f:	85 c0                	test   %eax,%eax
 8049171:	74 4b                	je     80491be <read_line+0x57>
 8049173:	8b 15 cc c3 04 08    	mov    0x804c3cc,%edx
 8049179:	8d 1c 92             	lea    (%edx,%edx,4),%ebx
 804917c:	c1 e3 04             	shl    $0x4,%ebx
 804917f:	81 c3 e0 c3 04 08    	add    $0x804c3e0,%ebx
 8049185:	b8 00 00 00 00       	mov    $0x0,%eax
 804918a:	b9 ff ff ff ff       	mov    $0xffffffff,%ecx
 804918f:	89 df                	mov    %ebx,%edi
 8049191:	f2 ae                	repnz scas %es:(%edi),%al
 8049193:	f7 d1                	not    %ecx
 8049195:	83 e9 01             	sub    $0x1,%ecx
 8049198:	83 f9 4e             	cmp    $0x4e,%ecx
 804919b:	0f 8f 8d 00 00 00    	jg     804922e <read_line+0xc7>
 80491a1:	8d 04 92             	lea    (%edx,%edx,4),%eax
 80491a4:	c1 e0 04             	shl    $0x4,%eax
 80491a7:	c6 84 01 df c3 04 08 	movb   $0x0,0x804c3df(%ecx,%eax,1)
 80491ae:	00 
 80491af:	83 c2 01             	add    $0x1,%edx
 80491b2:	89 15 cc c3 04 08    	mov    %edx,0x804c3cc
 80491b8:	89 d8                	mov    %ebx,%eax
 80491ba:	5b                   	pop    %ebx
 80491bb:	5e                   	pop    %esi
 80491bc:	5f                   	pop    %edi
 80491bd:	c3                   	ret    
 80491be:	a1 c0 c3 04 08       	mov    0x804c3c0,%eax
 80491c3:	39 05 d0 c3 04 08    	cmp    %eax,0x804c3d0
 80491c9:	74 40                	je     804920b <read_line+0xa4>
 80491cb:	83 ec 0c             	sub    $0xc,%esp
 80491ce:	68 13 a2 04 08       	push   $0x804a213
 80491d3:	e8 d8 f5 ff ff       	call   80487b0 <getenv@plt>
 80491d8:	83 c4 10             	add    $0x10,%esp
 80491db:	85 c0                	test   %eax,%eax
 80491dd:	75 45                	jne    8049224 <read_line+0xbd>
 80491df:	a1 c0 c3 04 08       	mov    0x804c3c0,%eax
 80491e4:	a3 d0 c3 04 08       	mov    %eax,0x804c3d0
 80491e9:	e8 d4 fe ff ff       	call   80490c2 <skip>
 80491ee:	85 c0                	test   %eax,%eax
 80491f0:	75 81                	jne    8049173 <read_line+0xc>
 80491f2:	83 ec 0c             	sub    $0xc,%esp
 80491f5:	68 f5 a1 04 08       	push   $0x804a1f5
 80491fa:	e8 c1 f5 ff ff       	call   80487c0 <puts@plt>
 80491ff:	c7 04 24 00 00 00 00 	movl   $0x0,(%esp)
 8049206:	e8 d5 f5 ff ff       	call   80487e0 <exit@plt>
 804920b:	83 ec 0c             	sub    $0xc,%esp
 804920e:	68 f5 a1 04 08       	push   $0x804a1f5
 8049213:	e8 a8 f5 ff ff       	call   80487c0 <puts@plt>
 8049218:	c7 04 24 08 00 00 00 	movl   $0x8,(%esp)
 804921f:	e8 bc f5 ff ff       	call   80487e0 <exit@plt>
 8049224:	83 ec 0c             	sub    $0xc,%esp
 8049227:	6a 00                	push   $0x0
 8049229:	e8 b2 f5 ff ff       	call   80487e0 <exit@plt>
 804922e:	83 ec 0c             	sub    $0xc,%esp
 8049231:	68 1e a2 04 08       	push   $0x804a21e
 8049236:	e8 85 f5 ff ff       	call   80487c0 <puts@plt>
 804923b:	a1 cc c3 04 08       	mov    0x804c3cc,%eax
 8049240:	8d 50 01             	lea    0x1(%eax),%edx
 8049243:	89 15 cc c3 04 08    	mov    %edx,0x804c3cc
 8049249:	6b c0 50             	imul   $0x50,%eax,%eax
 804924c:	05 e0 c3 04 08       	add    $0x804c3e0,%eax
 8049251:	ba 39 a2 04 08       	mov    $0x804a239,%edx
 8049256:	b9 04 00 00 00       	mov    $0x4,%ecx
 804925b:	89 c7                	mov    %eax,%edi
 804925d:	89 d6                	mov    %edx,%esi
 804925f:	f3 a5                	rep movsl %ds:(%esi),%es:(%edi)
 8049261:	e8 a1 fe ff ff       	call   8049107 <explode_bomb>

08049266 <phase_defused>:
 8049266:	83 ec 6c             	sub    $0x6c,%esp
 8049269:	65 a1 14 00 00 00    	mov    %gs:0x14,%eax
 804926f:	89 44 24 5c          	mov    %eax,0x5c(%esp)
 8049273:	31 c0                	xor    %eax,%eax
 8049275:	83 3d cc c3 04 08 06 	cmpl   $0x6,0x804c3cc
 804927c:	74 11                	je     804928f <phase_defused+0x29>
 804927e:	8b 44 24 5c          	mov    0x5c(%esp),%eax
 8049282:	65 33 05 14 00 00 00 	xor    %gs:0x14,%eax
 8049289:	75 7b                	jne    8049306 <phase_defused+0xa0>
 804928b:	83 c4 6c             	add    $0x6c,%esp
 804928e:	c3                   	ret    
 804928f:	83 ec 0c             	sub    $0xc,%esp
 8049292:	8d 44 24 18          	lea    0x18(%esp),%eax
 8049296:	50                   	push   %eax
 8049297:	8d 44 24 18          	lea    0x18(%esp),%eax
 804929b:	50                   	push   %eax
 804929c:	8d 44 24 18          	lea    0x18(%esp),%eax
 80492a0:	50                   	push   %eax
 80492a1:	68 49 a2 04 08       	push   $0x804a249
 80492a6:	68 d0 c4 04 08       	push   $0x804c4d0
 80492ab:	e8 60 f5 ff ff       	call   8048810 <__isoc99_sscanf@plt>
 80492b0:	83 c4 20             	add    $0x20,%esp
 80492b3:	83 f8 03             	cmp    $0x3,%eax
 80492b6:	74 12                	je     80492ca <phase_defused+0x64>
 80492b8:	83 ec 0c             	sub    $0xc,%esp
 80492bb:	68 78 a1 04 08       	push   $0x804a178
 80492c0:	e8 fb f4 ff ff       	call   80487c0 <puts@plt>
 80492c5:	83 c4 10             	add    $0x10,%esp
 80492c8:	eb b4                	jmp    804927e <phase_defused+0x18>
 80492ca:	83 ec 08             	sub    $0x8,%esp
 80492cd:	68 52 a2 04 08       	push   $0x804a252
 80492d2:	8d 44 24 18          	lea    0x18(%esp),%eax
 80492d6:	50                   	push   %eax
 80492d7:	e8 36 fd ff ff       	call   8049012 <strings_not_equal>
 80492dc:	83 c4 10             	add    $0x10,%esp
 80492df:	85 c0                	test   %eax,%eax
 80492e1:	75 d5                	jne    80492b8 <phase_defused+0x52>
 80492e3:	83 ec 0c             	sub    $0xc,%esp
 80492e6:	68 18 a1 04 08       	push   $0x804a118
 80492eb:	e8 d0 f4 ff ff       	call   80487c0 <puts@plt>
 80492f0:	c7 04 24 40 a1 04 08 	movl   $0x804a140,(%esp)
 80492f7:	e8 c4 f4 ff ff       	call   80487c0 <puts@plt>
 80492fc:	e8 1b fc ff ff       	call   8048f1c <secret_phase>
 8049301:	83 c4 10             	add    $0x10,%esp
 8049304:	eb b2                	jmp    80492b8 <phase_defused+0x52>
 8049306:	e8 85 f4 ff ff       	call   8048790 <__stack_chk_fail@plt>

0804930b <sigalrm_handler>:
 804930b:	83 ec 0c             	sub    $0xc,%esp
 804930e:	6a 00                	push   $0x0
 8049310:	68 a8 a2 04 08       	push   $0x804a2a8
 8049315:	6a 01                	push   $0x1
 8049317:	ff 35 a0 c3 04 08    	pushl  0x804c3a0
 804931d:	e8 3e f5 ff ff       	call   8048860 <__fprintf_chk@plt>
 8049322:	c7 04 24 01 00 00 00 	movl   $0x1,(%esp)
 8049329:	e8 b2 f4 ff ff       	call   80487e0 <exit@plt>

0804932e <rio_readlineb>:
 804932e:	55                   	push   %ebp
 804932f:	57                   	push   %edi
 8049330:	56                   	push   %esi
 8049331:	53                   	push   %ebx
 8049332:	83 ec 1c             	sub    $0x1c,%esp
 8049335:	83 f9 01             	cmp    $0x1,%ecx
 8049338:	76 79                	jbe    80493b3 <rio_readlineb+0x85>
 804933a:	89 d7                	mov    %edx,%edi
 804933c:	89 c3                	mov    %eax,%ebx
 804933e:	89 4c 24 0c          	mov    %ecx,0xc(%esp)
 8049342:	bd 01 00 00 00       	mov    $0x1,%ebp
 8049347:	8d 70 0c             	lea    0xc(%eax),%esi
 804934a:	eb 0a                	jmp    8049356 <rio_readlineb+0x28>
 804934c:	e8 df f4 ff ff       	call   8048830 <__errno_location@plt>
 8049351:	83 38 04             	cmpl   $0x4,(%eax)
 8049354:	75 66                	jne    80493bc <rio_readlineb+0x8e>
 8049356:	8b 43 04             	mov    0x4(%ebx),%eax
 8049359:	85 c0                	test   %eax,%eax
 804935b:	7f 23                	jg     8049380 <rio_readlineb+0x52>
 804935d:	83 ec 04             	sub    $0x4,%esp
 8049360:	68 00 20 00 00       	push   $0x2000
 8049365:	56                   	push   %esi
 8049366:	ff 33                	pushl  (%ebx)
 8049368:	e8 c3 f3 ff ff       	call   8048730 <read@plt>
 804936d:	89 43 04             	mov    %eax,0x4(%ebx)
 8049370:	83 c4 10             	add    $0x10,%esp
 8049373:	85 c0                	test   %eax,%eax
 8049375:	78 d5                	js     804934c <rio_readlineb+0x1e>
 8049377:	85 c0                	test   %eax,%eax
 8049379:	74 48                	je     80493c3 <rio_readlineb+0x95>
 804937b:	89 73 08             	mov    %esi,0x8(%ebx)
 804937e:	eb d6                	jmp    8049356 <rio_readlineb+0x28>
 8049380:	8b 4b 08             	mov    0x8(%ebx),%ecx
 8049383:	0f b6 11             	movzbl (%ecx),%edx
 8049386:	83 c1 01             	add    $0x1,%ecx
 8049389:	89 4b 08             	mov    %ecx,0x8(%ebx)
 804938c:	83 e8 01             	sub    $0x1,%eax
 804938f:	89 43 04             	mov    %eax,0x4(%ebx)
 8049392:	83 c7 01             	add    $0x1,%edi
 8049395:	88 57 ff             	mov    %dl,-0x1(%edi)
 8049398:	80 fa 0a             	cmp    $0xa,%dl
 804939b:	74 09                	je     80493a6 <rio_readlineb+0x78>
 804939d:	83 c5 01             	add    $0x1,%ebp
 80493a0:	3b 6c 24 0c          	cmp    0xc(%esp),%ebp
 80493a4:	75 b0                	jne    8049356 <rio_readlineb+0x28>
 80493a6:	c6 07 00             	movb   $0x0,(%edi)
 80493a9:	89 e8                	mov    %ebp,%eax
 80493ab:	83 c4 1c             	add    $0x1c,%esp
 80493ae:	5b                   	pop    %ebx
 80493af:	5e                   	pop    %esi
 80493b0:	5f                   	pop    %edi
 80493b1:	5d                   	pop    %ebp
 80493b2:	c3                   	ret    
 80493b3:	89 d7                	mov    %edx,%edi
 80493b5:	bd 01 00 00 00       	mov    $0x1,%ebp
 80493ba:	eb ea                	jmp    80493a6 <rio_readlineb+0x78>
 80493bc:	b8 ff ff ff ff       	mov    $0xffffffff,%eax
 80493c1:	eb 05                	jmp    80493c8 <rio_readlineb+0x9a>
 80493c3:	b8 00 00 00 00       	mov    $0x0,%eax
 80493c8:	85 c0                	test   %eax,%eax
 80493ca:	75 0c                	jne    80493d8 <rio_readlineb+0xaa>
 80493cc:	83 fd 01             	cmp    $0x1,%ebp
 80493cf:	75 d5                	jne    80493a6 <rio_readlineb+0x78>
 80493d1:	bd 00 00 00 00       	mov    $0x0,%ebp
 80493d6:	eb d1                	jmp    80493a9 <rio_readlineb+0x7b>
 80493d8:	bd ff ff ff ff       	mov    $0xffffffff,%ebp
 80493dd:	eb ca                	jmp    80493a9 <rio_readlineb+0x7b>

080493df <submitr>:
 80493df:	55                   	push   %ebp
 80493e0:	57                   	push   %edi
 80493e1:	56                   	push   %esi
 80493e2:	53                   	push   %ebx
 80493e3:	81 ec 60 a0 00 00    	sub    $0xa060,%esp
 80493e9:	8b 9c 24 74 a0 00 00 	mov    0xa074(%esp),%ebx
 80493f0:	8b 84 24 7c a0 00 00 	mov    0xa07c(%esp),%eax
 80493f7:	89 44 24 0c          	mov    %eax,0xc(%esp)
 80493fb:	8b 84 24 80 a0 00 00 	mov    0xa080(%esp),%eax
 8049402:	89 44 24 10          	mov    %eax,0x10(%esp)
 8049406:	8b 84 24 84 a0 00 00 	mov    0xa084(%esp),%eax
 804940d:	89 44 24 14          	mov    %eax,0x14(%esp)
 8049411:	8b b4 24 88 a0 00 00 	mov    0xa088(%esp),%esi
 8049418:	8b 84 24 8c a0 00 00 	mov    0xa08c(%esp),%eax
 804941f:	89 44 24 18          	mov    %eax,0x18(%esp)
 8049423:	65 a1 14 00 00 00    	mov    %gs:0x14,%eax
 8049429:	89 84 24 50 a0 00 00 	mov    %eax,0xa050(%esp)
 8049430:	31 c0                	xor    %eax,%eax
 8049432:	c7 44 24 30 00 00 00 	movl   $0x0,0x30(%esp)
 8049439:	00 
 804943a:	6a 00                	push   $0x0
 804943c:	6a 01                	push   $0x1
 804943e:	6a 02                	push   $0x2
 8049440:	e8 0b f4 ff ff       	call   8048850 <socket@plt>
 8049445:	83 c4 10             	add    $0x10,%esp
 8049448:	85 c0                	test   %eax,%eax
 804944a:	0f 88 04 01 00 00    	js     8049554 <submitr+0x175>
 8049450:	89 c5                	mov    %eax,%ebp
 8049452:	83 ec 0c             	sub    $0xc,%esp
 8049455:	53                   	push   %ebx
 8049456:	e8 15 f4 ff ff       	call   8048870 <gethostbyname@plt>
 804945b:	83 c4 10             	add    $0x10,%esp
 804945e:	85 c0                	test   %eax,%eax
 8049460:	0f 84 40 01 00 00    	je     80495a6 <submitr+0x1c7>
 8049466:	8d 5c 24 30          	lea    0x30(%esp),%ebx
 804946a:	c7 44 24 30 00 00 00 	movl   $0x0,0x30(%esp)
 8049471:	00 
 8049472:	c7 44 24 34 00 00 00 	movl   $0x0,0x34(%esp)
 8049479:	00 
 804947a:	c7 44 24 38 00 00 00 	movl   $0x0,0x38(%esp)
 8049481:	00 
 8049482:	c7 44 24 3c 00 00 00 	movl   $0x0,0x3c(%esp)
 8049489:	00 
 804948a:	66 c7 44 24 30 02 00 	movw   $0x2,0x30(%esp)
 8049491:	6a 0c                	push   $0xc
 8049493:	ff 70 0c             	pushl  0xc(%eax)
 8049496:	8b 40 10             	mov    0x10(%eax),%eax
 8049499:	ff 30                	pushl  (%eax)
 804949b:	8d 44 24 40          	lea    0x40(%esp),%eax
 804949f:	50                   	push   %eax
 80494a0:	e8 2b f3 ff ff       	call   80487d0 <__memmove_chk@plt>
 80494a5:	0f b7 84 24 84 a0 00 	movzwl 0xa084(%esp),%eax
 80494ac:	00 
 80494ad:	66 c1 c8 08          	ror    $0x8,%ax
 80494b1:	66 89 44 24 42       	mov    %ax,0x42(%esp)
 80494b6:	83 c4 0c             	add    $0xc,%esp
 80494b9:	6a 10                	push   $0x10
 80494bb:	53                   	push   %ebx
 80494bc:	55                   	push   %ebp
 80494bd:	e8 ce f3 ff ff       	call   8048890 <connect@plt>
 80494c2:	83 c4 10             	add    $0x10,%esp
 80494c5:	85 c0                	test   %eax,%eax
 80494c7:	0f 88 49 01 00 00    	js     8049616 <submitr+0x237>
 80494cd:	ba ff ff ff ff       	mov    $0xffffffff,%edx
 80494d2:	b8 00 00 00 00       	mov    $0x0,%eax
 80494d7:	89 d1                	mov    %edx,%ecx
 80494d9:	89 f7                	mov    %esi,%edi
 80494db:	f2 ae                	repnz scas %es:(%edi),%al
 80494dd:	89 cb                	mov    %ecx,%ebx
 80494df:	f7 d3                	not    %ebx
 80494e1:	89 d1                	mov    %edx,%ecx
 80494e3:	8b 7c 24 08          	mov    0x8(%esp),%edi
 80494e7:	f2 ae                	repnz scas %es:(%edi),%al
 80494e9:	89 4c 24 18          	mov    %ecx,0x18(%esp)
 80494ed:	89 d1                	mov    %edx,%ecx
 80494ef:	8b 7c 24 0c          	mov    0xc(%esp),%edi
 80494f3:	f2 ae                	repnz scas %es:(%edi),%al
 80494f5:	89 cf                	mov    %ecx,%edi
 80494f7:	f7 d7                	not    %edi
 80494f9:	89 7c 24 1c          	mov    %edi,0x1c(%esp)
 80494fd:	89 d1                	mov    %edx,%ecx
 80494ff:	8b 7c 24 10          	mov    0x10(%esp),%edi
 8049503:	f2 ae                	repnz scas %es:(%edi),%al
 8049505:	8b 54 24 1c          	mov    0x1c(%esp),%edx
 8049509:	2b 54 24 18          	sub    0x18(%esp),%edx
 804950d:	29 ca                	sub    %ecx,%edx
 804950f:	8d 44 5b fd          	lea    -0x3(%ebx,%ebx,2),%eax
 8049513:	8d 44 02 7b          	lea    0x7b(%edx,%eax,1),%eax
 8049517:	3d 00 20 00 00       	cmp    $0x2000,%eax
 804951c:	0f 87 56 01 00 00    	ja     8049678 <submitr+0x299>
 8049522:	8d 94 24 4c 40 00 00 	lea    0x404c(%esp),%edx
 8049529:	b9 00 08 00 00       	mov    $0x800,%ecx
 804952e:	b8 00 00 00 00       	mov    $0x0,%eax
 8049533:	89 d7                	mov    %edx,%edi
 8049535:	f3 ab                	rep stos %eax,%es:(%edi)
 8049537:	b9 ff ff ff ff       	mov    $0xffffffff,%ecx
 804953c:	89 f7                	mov    %esi,%edi
 804953e:	f2 ae                	repnz scas %es:(%edi),%al
 8049540:	f7 d1                	not    %ecx
 8049542:	89 cb                	mov    %ecx,%ebx
 8049544:	83 eb 01             	sub    $0x1,%ebx
 8049547:	0f 84 07 06 00 00    	je     8049b54 <submitr+0x775>
 804954d:	89 d7                	mov    %edx,%edi
 804954f:	e9 b0 01 00 00       	jmp    8049704 <submitr+0x325>
 8049554:	8b 44 24 14          	mov    0x14(%esp),%eax
 8049558:	c7 00 45 72 72 6f    	movl   $0x6f727245,(%eax)
 804955e:	c7 40 04 72 3a 20 43 	movl   $0x43203a72,0x4(%eax)
 8049565:	c7 40 08 6c 69 65 6e 	movl   $0x6e65696c,0x8(%eax)
 804956c:	c7 40 0c 74 20 75 6e 	movl   $0x6e752074,0xc(%eax)
 8049573:	c7 40 10 61 62 6c 65 	movl   $0x656c6261,0x10(%eax)
 804957a:	c7 40 14 20 74 6f 20 	movl   $0x206f7420,0x14(%eax)
 8049581:	c7 40 18 63 72 65 61 	movl   $0x61657263,0x18(%eax)
 8049588:	c7 40 1c 74 65 20 73 	movl   $0x73206574,0x1c(%eax)
 804958f:	c7 40 20 6f 63 6b 65 	movl   $0x656b636f,0x20(%eax)
 8049596:	66 c7 40 24 74 00    	movw   $0x74,0x24(%eax)
 804959c:	b8 ff ff ff ff       	mov    $0xffffffff,%eax
 80495a1:	e9 d0 04 00 00       	jmp    8049a76 <submitr+0x697>
 80495a6:	8b 44 24 14          	mov    0x14(%esp),%eax
 80495aa:	c7 00 45 72 72 6f    	movl   $0x6f727245,(%eax)
 80495b0:	c7 40 04 72 3a 20 44 	movl   $0x44203a72,0x4(%eax)
 80495b7:	c7 40 08 4e 53 20 69 	movl   $0x6920534e,0x8(%eax)
 80495be:	c7 40 0c 73 20 75 6e 	movl   $0x6e752073,0xc(%eax)
 80495c5:	c7 40 10 61 62 6c 65 	movl   $0x656c6261,0x10(%eax)
 80495cc:	c7 40 14 20 74 6f 20 	movl   $0x206f7420,0x14(%eax)
 80495d3:	c7 40 18 72 65 73 6f 	movl   $0x6f736572,0x18(%eax)
 80495da:	c7 40 1c 6c 76 65 20 	movl   $0x2065766c,0x1c(%eax)
 80495e1:	c7 40 20 73 65 72 76 	movl   $0x76726573,0x20(%eax)
 80495e8:	c7 40 24 65 72 20 61 	movl   $0x61207265,0x24(%eax)
 80495ef:	c7 40 28 64 64 72 65 	movl   $0x65726464,0x28(%eax)
 80495f6:	66 c7 40 2c 73 73    	movw   $0x7373,0x2c(%eax)
 80495fc:	c6 40 2e 00          	movb   $0x0,0x2e(%eax)
 8049600:	83 ec 0c             	sub    $0xc,%esp
 8049603:	55                   	push   %ebp
 8049604:	e8 97 f2 ff ff       	call   80488a0 <close@plt>
 8049609:	83 c4 10             	add    $0x10,%esp
 804960c:	b8 ff ff ff ff       	mov    $0xffffffff,%eax
 8049611:	e9 60 04 00 00       	jmp    8049a76 <submitr+0x697>
 8049616:	8b 44 24 14          	mov    0x14(%esp),%eax
 804961a:	c7 00 45 72 72 6f    	movl   $0x6f727245,(%eax)
 8049620:	c7 40 04 72 3a 20 55 	movl   $0x55203a72,0x4(%eax)
 8049627:	c7 40 08 6e 61 62 6c 	movl   $0x6c62616e,0x8(%eax)
 804962e:	c7 40 0c 65 20 74 6f 	movl   $0x6f742065,0xc(%eax)
 8049635:	c7 40 10 20 63 6f 6e 	movl   $0x6e6f6320,0x10(%eax)
 804963c:	c7 40 14 6e 65 63 74 	movl   $0x7463656e,0x14(%eax)
 8049643:	c7 40 18 20 74 6f 20 	movl   $0x206f7420,0x18(%eax)
 804964a:	c7 40 1c 74 68 65 20 	movl   $0x20656874,0x1c(%eax)
 8049651:	c7 40 20 73 65 72 76 	movl   $0x76726573,0x20(%eax)
 8049658:	66 c7 40 24 65 72    	movw   $0x7265,0x24(%eax)
 804965e:	c6 40 26 00          	movb   $0x0,0x26(%eax)
 8049662:	83 ec 0c             	sub    $0xc,%esp
 8049665:	55                   	push   %ebp
 8049666:	e8 35 f2 ff ff       	call   80488a0 <close@plt>
 804966b:	83 c4 10             	add    $0x10,%esp
 804966e:	b8 ff ff ff ff       	mov    $0xffffffff,%eax
 8049673:	e9 fe 03 00 00       	jmp    8049a76 <submitr+0x697>
 8049678:	8b 44 24 14          	mov    0x14(%esp),%eax
 804967c:	c7 00 45 72 72 6f    	movl   $0x6f727245,(%eax)
 8049682:	c7 40 04 72 3a 20 52 	movl   $0x52203a72,0x4(%eax)
 8049689:	c7 40 08 65 73 75 6c 	movl   $0x6c757365,0x8(%eax)
 8049690:	c7 40 0c 74 20 73 74 	movl   $0x74732074,0xc(%eax)
 8049697:	c7 40 10 72 69 6e 67 	movl   $0x676e6972,0x10(%eax)
 804969e:	c7 40 14 20 74 6f 6f 	movl   $0x6f6f7420,0x14(%eax)
 80496a5:	c7 40 18 20 6c 61 72 	movl   $0x72616c20,0x18(%eax)
 80496ac:	c7 40 1c 67 65 2e 20 	movl   $0x202e6567,0x1c(%eax)
 80496b3:	c7 40 20 49 6e 63 72 	movl   $0x72636e49,0x20(%eax)
 80496ba:	c7 40 24 65 61 73 65 	movl   $0x65736165,0x24(%eax)
 80496c1:	c7 40 28 20 53 55 42 	movl   $0x42555320,0x28(%eax)
 80496c8:	c7 40 2c 4d 49 54 52 	movl   $0x5254494d,0x2c(%eax)
 80496cf:	c7 40 30 5f 4d 41 58 	movl   $0x58414d5f,0x30(%eax)
 80496d6:	c7 40 34 42 55 46 00 	movl   $0x465542,0x34(%eax)
 80496dd:	83 ec 0c             	sub    $0xc,%esp
 80496e0:	55                   	push   %ebp
 80496e1:	e8 ba f1 ff ff       	call   80488a0 <close@plt>
 80496e6:	83 c4 10             	add    $0x10,%esp
 80496e9:	b8 ff ff ff ff       	mov    $0xffffffff,%eax
 80496ee:	e9 83 03 00 00       	jmp    8049a76 <submitr+0x697>
 80496f3:	88 17                	mov    %dl,(%edi)
 80496f5:	8d 7f 01             	lea    0x1(%edi),%edi
 80496f8:	83 c6 01             	add    $0x1,%esi
 80496fb:	83 eb 01             	sub    $0x1,%ebx
 80496fe:	0f 84 50 04 00 00    	je     8049b54 <submitr+0x775>
 8049704:	0f b6 16             	movzbl (%esi),%edx
 8049707:	8d 4a d6             	lea    -0x2a(%edx),%ecx
 804970a:	b8 01 00 00 00       	mov    $0x1,%eax
 804970f:	80 f9 0f             	cmp    $0xf,%cl
 8049712:	77 0d                	ja     8049721 <submitr+0x342>
 8049714:	b8 d9 ff 00 00       	mov    $0xffd9,%eax
 8049719:	d3 e8                	shr    %cl,%eax
 804971b:	83 f0 01             	xor    $0x1,%eax
 804971e:	83 e0 01             	and    $0x1,%eax
 8049721:	80 fa 5f             	cmp    $0x5f,%dl
 8049724:	74 cd                	je     80496f3 <submitr+0x314>
 8049726:	84 c0                	test   %al,%al
 8049728:	74 c9                	je     80496f3 <submitr+0x314>
 804972a:	89 d0                	mov    %edx,%eax
 804972c:	83 e0 df             	and    $0xffffffdf,%eax
 804972f:	83 e8 41             	sub    $0x41,%eax
 8049732:	3c 19                	cmp    $0x19,%al
 8049734:	76 bd                	jbe    80496f3 <submitr+0x314>
 8049736:	80 fa 20             	cmp    $0x20,%dl
 8049739:	74 58                	je     8049793 <submitr+0x3b4>
 804973b:	8d 42 e0             	lea    -0x20(%edx),%eax
 804973e:	3c 5f                	cmp    $0x5f,%al
 8049740:	76 09                	jbe    804974b <submitr+0x36c>
 8049742:	80 fa 09             	cmp    $0x9,%dl
 8049745:	0f 85 c5 03 00 00    	jne    8049b10 <submitr+0x731>
 804974b:	83 ec 0c             	sub    $0xc,%esp
 804974e:	0f b6 d2             	movzbl %dl,%edx
 8049751:	52                   	push   %edx
 8049752:	68 b4 a3 04 08       	push   $0x804a3b4
 8049757:	6a 08                	push   $0x8
 8049759:	6a 01                	push   $0x1
 804975b:	8d 84 24 68 80 00 00 	lea    0x8068(%esp),%eax
 8049762:	50                   	push   %eax
 8049763:	e8 58 f1 ff ff       	call   80488c0 <__sprintf_chk@plt>
 8049768:	0f b6 84 24 6c 80 00 	movzbl 0x806c(%esp),%eax
 804976f:	00 
 8049770:	88 07                	mov    %al,(%edi)
 8049772:	0f b6 84 24 6d 80 00 	movzbl 0x806d(%esp),%eax
 8049779:	00 
 804977a:	88 47 01             	mov    %al,0x1(%edi)
 804977d:	0f b6 84 24 6e 80 00 	movzbl 0x806e(%esp),%eax
 8049784:	00 
 8049785:	88 47 02             	mov    %al,0x2(%edi)
 8049788:	83 c4 20             	add    $0x20,%esp
 804978b:	8d 7f 03             	lea    0x3(%edi),%edi
 804978e:	e9 65 ff ff ff       	jmp    80496f8 <submitr+0x319>
 8049793:	c6 07 2b             	movb   $0x2b,(%edi)
 8049796:	8d 7f 01             	lea    0x1(%edi),%edi
 8049799:	e9 5a ff ff ff       	jmp    80496f8 <submitr+0x319>
 804979e:	01 c6                	add    %eax,%esi
 80497a0:	29 c3                	sub    %eax,%ebx
 80497a2:	74 24                	je     80497c8 <submitr+0x3e9>
 80497a4:	83 ec 04             	sub    $0x4,%esp
 80497a7:	53                   	push   %ebx
 80497a8:	56                   	push   %esi
 80497a9:	55                   	push   %ebp
 80497aa:	e8 51 f0 ff ff       	call   8048800 <write@plt>
 80497af:	83 c4 10             	add    $0x10,%esp
 80497b2:	85 c0                	test   %eax,%eax
 80497b4:	7f e8                	jg     804979e <submitr+0x3bf>
 80497b6:	e8 75 f0 ff ff       	call   8048830 <__errno_location@plt>
 80497bb:	83 38 04             	cmpl   $0x4,(%eax)
 80497be:	0f 85 b0 00 00 00    	jne    8049874 <submitr+0x495>
 80497c4:	89 f8                	mov    %edi,%eax
 80497c6:	eb d6                	jmp    804979e <submitr+0x3bf>
 80497c8:	83 7c 24 08 00       	cmpl   $0x0,0x8(%esp)
 80497cd:	0f 88 a1 00 00 00    	js     8049874 <submitr+0x495>
 80497d3:	89 6c 24 40          	mov    %ebp,0x40(%esp)
 80497d7:	c7 44 24 44 00 00 00 	movl   $0x0,0x44(%esp)
 80497de:	00 
 80497df:	8d 44 24 4c          	lea    0x4c(%esp),%eax
 80497e3:	89 44 24 48          	mov    %eax,0x48(%esp)
 80497e7:	b9 00 20 00 00       	mov    $0x2000,%ecx
 80497ec:	8d 94 24 4c 20 00 00 	lea    0x204c(%esp),%edx
 80497f3:	8d 44 24 40          	lea    0x40(%esp),%eax
 80497f7:	e8 32 fb ff ff       	call   804932e <rio_readlineb>
 80497fc:	85 c0                	test   %eax,%eax
 80497fe:	0f 8e d6 00 00 00    	jle    80498da <submitr+0x4fb>
 8049804:	83 ec 0c             	sub    $0xc,%esp
 8049807:	8d 84 24 58 80 00 00 	lea    0x8058(%esp),%eax
 804980e:	50                   	push   %eax
 804980f:	8d 44 24 3c          	lea    0x3c(%esp),%eax
 8049813:	50                   	push   %eax
 8049814:	8d 84 24 60 60 00 00 	lea    0x6060(%esp),%eax
 804981b:	50                   	push   %eax
 804981c:	68 bb a3 04 08       	push   $0x804a3bb
 8049821:	8d 84 24 68 20 00 00 	lea    0x2068(%esp),%eax
 8049828:	50                   	push   %eax
 8049829:	e8 e2 ef ff ff       	call   8048810 <__isoc99_sscanf@plt>
 804982e:	8b 44 24 4c          	mov    0x4c(%esp),%eax
 8049832:	83 c4 20             	add    $0x20,%esp
 8049835:	3d c8 00 00 00       	cmp    $0xc8,%eax
 804983a:	0f 84 a6 01 00 00    	je     80499e6 <submitr+0x607>
 8049840:	83 ec 08             	sub    $0x8,%esp
 8049843:	8d 94 24 54 80 00 00 	lea    0x8054(%esp),%edx
 804984a:	52                   	push   %edx
 804984b:	50                   	push   %eax
 804984c:	68 cc a2 04 08       	push   $0x804a2cc
 8049851:	6a ff                	push   $0xffffffff
 8049853:	6a 01                	push   $0x1
 8049855:	ff 74 24 30          	pushl  0x30(%esp)
 8049859:	e8 62 f0 ff ff       	call   80488c0 <__sprintf_chk@plt>
 804985e:	83 c4 14             	add    $0x14,%esp
 8049861:	55                   	push   %ebp
 8049862:	e8 39 f0 ff ff       	call   80488a0 <close@plt>
 8049867:	83 c4 10             	add    $0x10,%esp
 804986a:	b8 ff ff ff ff       	mov    $0xffffffff,%eax
 804986f:	e9 02 02 00 00       	jmp    8049a76 <submitr+0x697>
 8049874:	8b 44 24 14          	mov    0x14(%esp),%eax
 8049878:	c7 00 45 72 72 6f    	movl   $0x6f727245,(%eax)
 804987e:	c7 40 04 72 3a 20 43 	movl   $0x43203a72,0x4(%eax)
 8049885:	c7 40 08 6c 69 65 6e 	movl   $0x6e65696c,0x8(%eax)
 804988c:	c7 40 0c 74 20 75 6e 	movl   $0x6e752074,0xc(%eax)
 8049893:	c7 40 10 61 62 6c 65 	movl   $0x656c6261,0x10(%eax)
 804989a:	c7 40 14 20 74 6f 20 	movl   $0x206f7420,0x14(%eax)
 80498a1:	c7 40 18 77 72 69 74 	movl   $0x74697277,0x18(%eax)
 80498a8:	c7 40 1c 65 20 74 6f 	movl   $0x6f742065,0x1c(%eax)
 80498af:	c7 40 20 20 74 68 65 	movl   $0x65687420,0x20(%eax)
 80498b6:	c7 40 24 20 73 65 72 	movl   $0x72657320,0x24(%eax)
 80498bd:	c7 40 28 76 65 72 00 	movl   $0x726576,0x28(%eax)
 80498c4:	83 ec 0c             	sub    $0xc,%esp
 80498c7:	55                   	push   %ebp
 80498c8:	e8 d3 ef ff ff       	call   80488a0 <close@plt>
 80498cd:	83 c4 10             	add    $0x10,%esp
 80498d0:	b8 ff ff ff ff       	mov    $0xffffffff,%eax
 80498d5:	e9 9c 01 00 00       	jmp    8049a76 <submitr+0x697>
 80498da:	8b 44 24 14          	mov    0x14(%esp),%eax
 80498de:	c7 00 45 72 72 6f    	movl   $0x6f727245,(%eax)
 80498e4:	c7 40 04 72 3a 20 43 	movl   $0x43203a72,0x4(%eax)
 80498eb:	c7 40 08 6c 69 65 6e 	movl   $0x6e65696c,0x8(%eax)
 80498f2:	c7 40 0c 74 20 75 6e 	movl   $0x6e752074,0xc(%eax)
 80498f9:	c7 40 10 61 62 6c 65 	movl   $0x656c6261,0x10(%eax)
 8049900:	c7 40 14 20 74 6f 20 	movl   $0x206f7420,0x14(%eax)
 8049907:	c7 40 18 72 65 61 64 	movl   $0x64616572,0x18(%eax)
 804990e:	c7 40 1c 20 66 69 72 	movl   $0x72696620,0x1c(%eax)
 8049915:	c7 40 20 73 74 20 68 	movl   $0x68207473,0x20(%eax)
 804991c:	c7 40 24 65 61 64 65 	movl   $0x65646165,0x24(%eax)
 8049923:	c7 40 28 72 20 66 72 	movl   $0x72662072,0x28(%eax)
 804992a:	c7 40 2c 6f 6d 20 73 	movl   $0x73206d6f,0x2c(%eax)
 8049931:	c7 40 30 65 72 76 65 	movl   $0x65767265,0x30(%eax)
 8049938:	66 c7 40 34 72 00    	movw   $0x72,0x34(%eax)
 804993e:	83 ec 0c             	sub    $0xc,%esp
 8049941:	55                   	push   %ebp
 8049942:	e8 59 ef ff ff       	call   80488a0 <close@plt>
 8049947:	83 c4 10             	add    $0x10,%esp
 804994a:	b8 ff ff ff ff       	mov    $0xffffffff,%eax
 804994f:	e9 22 01 00 00       	jmp    8049a76 <submitr+0x697>
 8049954:	8b 44 24 14          	mov    0x14(%esp),%eax
 8049958:	c7 00 45 72 72 6f    	movl   $0x6f727245,(%eax)
 804995e:	c7 40 04 72 3a 20 43 	movl   $0x43203a72,0x4(%eax)
 8049965:	c7 40 08 6c 69 65 6e 	movl   $0x6e65696c,0x8(%eax)
 804996c:	c7 40 0c 74 20 75 6e 	movl   $0x6e752074,0xc(%eax)
 8049973:	c7 40 10 61 62 6c 65 	movl   $0x656c6261,0x10(%eax)
 804997a:	c7 40 14 20 74 6f 20 	movl   $0x206f7420,0x14(%eax)
 8049981:	c7 40 18 72 65 61 64 	movl   $0x64616572,0x18(%eax)
 8049988:	c7 40 1c 20 68 65 61 	movl   $0x61656820,0x1c(%eax)
 804998f:	c7 40 20 64 65 72 73 	movl   $0x73726564,0x20(%eax)
 8049996:	c7 40 24 20 66 72 6f 	movl   $0x6f726620,0x24(%eax)
 804999d:	c7 40 28 6d 20 73 65 	movl   $0x6573206d,0x28(%eax)
 80499a4:	c7 40 2c 72 76 65 72 	movl   $0x72657672,0x2c(%eax)
 80499ab:	c6 40 30 00          	movb   $0x0,0x30(%eax)
 80499af:	83 ec 0c             	sub    $0xc,%esp
 80499b2:	55                   	push   %ebp
 80499b3:	e8 e8 ee ff ff       	call   80488a0 <close@plt>
 80499b8:	83 c4 10             	add    $0x10,%esp
 80499bb:	b8 ff ff ff ff       	mov    $0xffffffff,%eax
 80499c0:	e9 b1 00 00 00       	jmp    8049a76 <submitr+0x697>
 80499c5:	85 c0                	test   %eax,%eax
 80499c7:	74 4b                	je     8049a14 <submitr+0x635>
 80499c9:	b9 00 20 00 00       	mov    $0x2000,%ecx
 80499ce:	8d 94 24 4c 20 00 00 	lea    0x204c(%esp),%edx
 80499d5:	8d 44 24 40          	lea    0x40(%esp),%eax
 80499d9:	e8 50 f9 ff ff       	call   804932e <rio_readlineb>
 80499de:	85 c0                	test   %eax,%eax
 80499e0:	0f 8e 6e ff ff ff    	jle    8049954 <submitr+0x575>
 80499e6:	0f b6 94 24 4c 20 00 	movzbl 0x204c(%esp),%edx
 80499ed:	00 
 80499ee:	b8 0d 00 00 00       	mov    $0xd,%eax
 80499f3:	29 d0                	sub    %edx,%eax
 80499f5:	75 ce                	jne    80499c5 <submitr+0x5e6>
 80499f7:	0f b6 94 24 4d 20 00 	movzbl 0x204d(%esp),%edx
 80499fe:	00 
 80499ff:	b8 0a 00 00 00       	mov    $0xa,%eax
 8049a04:	29 d0                	sub    %edx,%eax
 8049a06:	75 bd                	jne    80499c5 <submitr+0x5e6>
 8049a08:	0f b6 84 24 4e 20 00 	movzbl 0x204e(%esp),%eax
 8049a0f:	00 
 8049a10:	f7 d8                	neg    %eax
 8049a12:	eb b1                	jmp    80499c5 <submitr+0x5e6>
 8049a14:	b9 00 20 00 00       	mov    $0x2000,%ecx
 8049a19:	8d 94 24 4c 20 00 00 	lea    0x204c(%esp),%edx
 8049a20:	8d 44 24 40          	lea    0x40(%esp),%eax
 8049a24:	e8 05 f9 ff ff       	call   804932e <rio_readlineb>
 8049a29:	85 c0                	test   %eax,%eax
 8049a2b:	7e 68                	jle    8049a95 <submitr+0x6b6>
 8049a2d:	83 ec 08             	sub    $0x8,%esp
 8049a30:	8d 84 24 54 20 00 00 	lea    0x2054(%esp),%eax
 8049a37:	50                   	push   %eax
 8049a38:	8b 7c 24 20          	mov    0x20(%esp),%edi
 8049a3c:	57                   	push   %edi
 8049a3d:	e8 5e ed ff ff       	call   80487a0 <strcpy@plt>
 8049a42:	89 2c 24             	mov    %ebp,(%esp)
 8049a45:	e8 56 ee ff ff       	call   80488a0 <close@plt>
 8049a4a:	0f b6 17             	movzbl (%edi),%edx
 8049a4d:	b8 4f 00 00 00       	mov    $0x4f,%eax
 8049a52:	83 c4 10             	add    $0x10,%esp
 8049a55:	29 d0                	sub    %edx,%eax
 8049a57:	75 13                	jne    8049a6c <submitr+0x68d>
 8049a59:	0f b6 57 01          	movzbl 0x1(%edi),%edx
 8049a5d:	b8 4b 00 00 00       	mov    $0x4b,%eax
 8049a62:	29 d0                	sub    %edx,%eax
 8049a64:	75 06                	jne    8049a6c <submitr+0x68d>
 8049a66:	0f b6 47 02          	movzbl 0x2(%edi),%eax
 8049a6a:	f7 d8                	neg    %eax
 8049a6c:	85 c0                	test   %eax,%eax
 8049a6e:	0f 95 c0             	setne  %al
 8049a71:	0f b6 c0             	movzbl %al,%eax
 8049a74:	f7 d8                	neg    %eax
 8049a76:	8b bc 24 4c a0 00 00 	mov    0xa04c(%esp),%edi
 8049a7d:	65 33 3d 14 00 00 00 	xor    %gs:0x14,%edi
 8049a84:	0f 85 2a 01 00 00    	jne    8049bb4 <submitr+0x7d5>
 8049a8a:	81 c4 5c a0 00 00    	add    $0xa05c,%esp
 8049a90:	5b                   	pop    %ebx
 8049a91:	5e                   	pop    %esi
 8049a92:	5f                   	pop    %edi
 8049a93:	5d                   	pop    %ebp
 8049a94:	c3                   	ret    
 8049a95:	8b 44 24 14          	mov    0x14(%esp),%eax
 8049a99:	c7 00 45 72 72 6f    	movl   $0x6f727245,(%eax)
 8049a9f:	c7 40 04 72 3a 20 43 	movl   $0x43203a72,0x4(%eax)
 8049aa6:	c7 40 08 6c 69 65 6e 	movl   $0x6e65696c,0x8(%eax)
 8049aad:	c7 40 0c 74 20 75 6e 	movl   $0x6e752074,0xc(%eax)
 8049ab4:	c7 40 10 61 62 6c 65 	movl   $0x656c6261,0x10(%eax)
 8049abb:	c7 40 14 20 74 6f 20 	movl   $0x206f7420,0x14(%eax)
 8049ac2:	c7 40 18 72 65 61 64 	movl   $0x64616572,0x18(%eax)
 8049ac9:	c7 40 1c 20 73 74 61 	movl   $0x61747320,0x1c(%eax)
 8049ad0:	c7 40 20 74 75 73 20 	movl   $0x20737574,0x20(%eax)
 8049ad7:	c7 40 24 6d 65 73 73 	movl   $0x7373656d,0x24(%eax)
 8049ade:	c7 40 28 61 67 65 20 	movl   $0x20656761,0x28(%eax)
 8049ae5:	c7 40 2c 66 72 6f 6d 	movl   $0x6d6f7266,0x2c(%eax)
 8049aec:	c7 40 30 20 73 65 72 	movl   $0x72657320,0x30(%eax)
 8049af3:	c7 40 34 76 65 72 00 	movl   $0x726576,0x34(%eax)
 8049afa:	83 ec 0c             	sub    $0xc,%esp
 8049afd:	55                   	push   %ebp
 8049afe:	e8 9d ed ff ff       	call   80488a0 <close@plt>
 8049b03:	83 c4 10             	add    $0x10,%esp
 8049b06:	b8 ff ff ff ff       	mov    $0xffffffff,%eax
 8049b0b:	e9 66 ff ff ff       	jmp    8049a76 <submitr+0x697>
 8049b10:	a1 fc a2 04 08       	mov    0x804a2fc,%eax
 8049b15:	8b 5c 24 14          	mov    0x14(%esp),%ebx
 8049b19:	89 03                	mov    %eax,(%ebx)
 8049b1b:	a1 3b a3 04 08       	mov    0x804a33b,%eax
 8049b20:	89 43 3f             	mov    %eax,0x3f(%ebx)
 8049b23:	8d 7b 04             	lea    0x4(%ebx),%edi
 8049b26:	83 e7 fc             	and    $0xfffffffc,%edi
 8049b29:	29 fb                	sub    %edi,%ebx
 8049b2b:	89 d8                	mov    %ebx,%eax
 8049b2d:	be fc a2 04 08       	mov    $0x804a2fc,%esi
 8049b32:	29 de                	sub    %ebx,%esi
 8049b34:	83 c0 43             	add    $0x43,%eax
 8049b37:	c1 e8 02             	shr    $0x2,%eax
 8049b3a:	89 c1                	mov    %eax,%ecx
 8049b3c:	f3 a5                	rep movsl %ds:(%esi),%es:(%edi)
 8049b3e:	83 ec 0c             	sub    $0xc,%esp
 8049b41:	55                   	push   %ebp
 8049b42:	e8 59 ed ff ff       	call   80488a0 <close@plt>
 8049b47:	83 c4 10             	add    $0x10,%esp
 8049b4a:	b8 ff ff ff ff       	mov    $0xffffffff,%eax
 8049b4f:	e9 22 ff ff ff       	jmp    8049a76 <submitr+0x697>
 8049b54:	8d 84 24 4c 40 00 00 	lea    0x404c(%esp),%eax
 8049b5b:	50                   	push   %eax
 8049b5c:	ff 74 24 14          	pushl  0x14(%esp)
 8049b60:	ff 74 24 14          	pushl  0x14(%esp)
 8049b64:	ff 74 24 14          	pushl  0x14(%esp)
 8049b68:	68 40 a3 04 08       	push   $0x804a340
 8049b6d:	68 00 20 00 00       	push   $0x2000
 8049b72:	6a 01                	push   $0x1
 8049b74:	8d bc 24 68 20 00 00 	lea    0x2068(%esp),%edi
 8049b7b:	57                   	push   %edi
 8049b7c:	e8 3f ed ff ff       	call   80488c0 <__sprintf_chk@plt>
 8049b81:	b8 00 00 00 00       	mov    $0x0,%eax
 8049b86:	b9 ff ff ff ff       	mov    $0xffffffff,%ecx
 8049b8b:	f2 ae                	repnz scas %es:(%edi),%al
 8049b8d:	f7 d1                	not    %ecx
 8049b8f:	8d 41 ff             	lea    -0x1(%ecx),%eax
 8049b92:	89 44 24 28          	mov    %eax,0x28(%esp)
 8049b96:	83 c4 20             	add    $0x20,%esp
 8049b99:	89 c3                	mov    %eax,%ebx
 8049b9b:	8d b4 24 4c 20 00 00 	lea    0x204c(%esp),%esi
 8049ba2:	bf 00 00 00 00       	mov    $0x0,%edi
 8049ba7:	85 c0                	test   %eax,%eax
 8049ba9:	0f 85 f5 fb ff ff    	jne    80497a4 <submitr+0x3c5>
 8049baf:	e9 1f fc ff ff       	jmp    80497d3 <submitr+0x3f4>
 8049bb4:	e8 d7 eb ff ff       	call   8048790 <__stack_chk_fail@plt>

08049bb9 <init_timeout>:
 8049bb9:	53                   	push   %ebx
 8049bba:	83 ec 08             	sub    $0x8,%esp
 8049bbd:	8b 5c 24 10          	mov    0x10(%esp),%ebx
 8049bc1:	85 db                	test   %ebx,%ebx
 8049bc3:	74 24                	je     8049be9 <init_timeout+0x30>
 8049bc5:	83 ec 08             	sub    $0x8,%esp
 8049bc8:	68 0b 93 04 08       	push   $0x804930b
 8049bcd:	6a 0e                	push   $0xe
 8049bcf:	e8 8c eb ff ff       	call   8048760 <signal@plt>
 8049bd4:	85 db                	test   %ebx,%ebx
 8049bd6:	b8 00 00 00 00       	mov    $0x0,%eax
 8049bdb:	0f 48 d8             	cmovs  %eax,%ebx
 8049bde:	89 1c 24             	mov    %ebx,(%esp)
 8049be1:	e8 9a eb ff ff       	call   8048780 <alarm@plt>
 8049be6:	83 c4 10             	add    $0x10,%esp
 8049be9:	83 c4 08             	add    $0x8,%esp
 8049bec:	5b                   	pop    %ebx
 8049bed:	c3                   	ret    

08049bee <init_driver>:
 8049bee:	57                   	push   %edi
 8049bef:	56                   	push   %esi
 8049bf0:	53                   	push   %ebx
 8049bf1:	83 ec 28             	sub    $0x28,%esp
 8049bf4:	8b 74 24 38          	mov    0x38(%esp),%esi
 8049bf8:	65 a1 14 00 00 00    	mov    %gs:0x14,%eax
 8049bfe:	89 44 24 24          	mov    %eax,0x24(%esp)
 8049c02:	31 c0                	xor    %eax,%eax
 8049c04:	6a 01                	push   $0x1
 8049c06:	6a 0d                	push   $0xd
 8049c08:	e8 53 eb ff ff       	call   8048760 <signal@plt>
 8049c0d:	83 c4 08             	add    $0x8,%esp
 8049c10:	6a 01                	push   $0x1
 8049c12:	6a 1d                	push   $0x1d
 8049c14:	e8 47 eb ff ff       	call   8048760 <signal@plt>
 8049c19:	83 c4 08             	add    $0x8,%esp
 8049c1c:	6a 01                	push   $0x1
 8049c1e:	6a 1d                	push   $0x1d
 8049c20:	e8 3b eb ff ff       	call   8048760 <signal@plt>
 8049c25:	83 c4 0c             	add    $0xc,%esp
 8049c28:	6a 00                	push   $0x0
 8049c2a:	6a 01                	push   $0x1
 8049c2c:	6a 02                	push   $0x2
 8049c2e:	e8 1d ec ff ff       	call   8048850 <socket@plt>
 8049c33:	83 c4 10             	add    $0x10,%esp
 8049c36:	85 c0                	test   %eax,%eax
 8049c38:	0f 88 a9 00 00 00    	js     8049ce7 <init_driver+0xf9>
 8049c3e:	89 c3                	mov    %eax,%ebx
 8049c40:	83 ec 0c             	sub    $0xc,%esp
 8049c43:	68 cc a3 04 08       	push   $0x804a3cc
 8049c48:	e8 23 ec ff ff       	call   8048870 <gethostbyname@plt>
 8049c4d:	83 c4 10             	add    $0x10,%esp
 8049c50:	85 c0                	test   %eax,%eax
 8049c52:	0f 84 da 00 00 00    	je     8049d32 <init_driver+0x144>
 8049c58:	8d 7c 24 0c          	lea    0xc(%esp),%edi
 8049c5c:	c7 44 24 0c 00 00 00 	movl   $0x0,0xc(%esp)
 8049c63:	00 
 8049c64:	c7 44 24 10 00 00 00 	movl   $0x0,0x10(%esp)
 8049c6b:	00 
 8049c6c:	c7 44 24 14 00 00 00 	movl   $0x0,0x14(%esp)
 8049c73:	00 
 8049c74:	c7 44 24 18 00 00 00 	movl   $0x0,0x18(%esp)
 8049c7b:	00 
 8049c7c:	66 c7 44 24 0c 02 00 	movw   $0x2,0xc(%esp)
 8049c83:	6a 0c                	push   $0xc
 8049c85:	ff 70 0c             	pushl  0xc(%eax)
 8049c88:	8b 40 10             	mov    0x10(%eax),%eax
 8049c8b:	ff 30                	pushl  (%eax)
 8049c8d:	8d 44 24 1c          	lea    0x1c(%esp),%eax
 8049c91:	50                   	push   %eax
 8049c92:	e8 39 eb ff ff       	call   80487d0 <__memmove_chk@plt>
 8049c97:	66 c7 44 24 1e 3b 6e 	movw   $0x6e3b,0x1e(%esp)
 8049c9e:	83 c4 0c             	add    $0xc,%esp
 8049ca1:	6a 10                	push   $0x10
 8049ca3:	57                   	push   %edi
 8049ca4:	53                   	push   %ebx
 8049ca5:	e8 e6 eb ff ff       	call   8048890 <connect@plt>
 8049caa:	83 c4 10             	add    $0x10,%esp
 8049cad:	85 c0                	test   %eax,%eax
 8049caf:	0f 88 e9 00 00 00    	js     8049d9e <init_driver+0x1b0>
 8049cb5:	83 ec 0c             	sub    $0xc,%esp
 8049cb8:	53                   	push   %ebx
 8049cb9:	e8 e2 eb ff ff       	call   80488a0 <close@plt>
 8049cbe:	66 c7 06 4f 4b       	movw   $0x4b4f,(%esi)
 8049cc3:	c6 46 02 00          	movb   $0x0,0x2(%esi)
 8049cc7:	83 c4 10             	add    $0x10,%esp
 8049cca:	b8 00 00 00 00       	mov    $0x0,%eax
 8049ccf:	8b 54 24 1c          	mov    0x1c(%esp),%edx
 8049cd3:	65 33 15 14 00 00 00 	xor    %gs:0x14,%edx
 8049cda:	0f 85 eb 00 00 00    	jne    8049dcb <init_driver+0x1dd>
 8049ce0:	83 c4 20             	add    $0x20,%esp
 8049ce3:	5b                   	pop    %ebx
 8049ce4:	5e                   	pop    %esi
 8049ce5:	5f                   	pop    %edi
 8049ce6:	c3                   	ret    
 8049ce7:	c7 06 45 72 72 6f    	movl   $0x6f727245,(%esi)
 8049ced:	c7 46 04 72 3a 20 43 	movl   $0x43203a72,0x4(%esi)
 8049cf4:	c7 46 08 6c 69 65 6e 	movl   $0x6e65696c,0x8(%esi)
 8049cfb:	c7 46 0c 74 20 75 6e 	movl   $0x6e752074,0xc(%esi)
 8049d02:	c7 46 10 61 62 6c 65 	movl   $0x656c6261,0x10(%esi)
 8049d09:	c7 46 14 20 74 6f 20 	movl   $0x206f7420,0x14(%esi)
 8049d10:	c7 46 18 63 72 65 61 	movl   $0x61657263,0x18(%esi)
 8049d17:	c7 46 1c 74 65 20 73 	movl   $0x73206574,0x1c(%esi)
 8049d1e:	c7 46 20 6f 63 6b 65 	movl   $0x656b636f,0x20(%esi)
 8049d25:	66 c7 46 24 74 00    	movw   $0x74,0x24(%esi)
 8049d2b:	b8 ff ff ff ff       	mov    $0xffffffff,%eax
 8049d30:	eb 9d                	jmp    8049ccf <init_driver+0xe1>
 8049d32:	c7 06 45 72 72 6f    	movl   $0x6f727245,(%esi)
 8049d38:	c7 46 04 72 3a 20 44 	movl   $0x44203a72,0x4(%esi)
 8049d3f:	c7 46 08 4e 53 20 69 	movl   $0x6920534e,0x8(%esi)
 8049d46:	c7 46 0c 73 20 75 6e 	movl   $0x6e752073,0xc(%esi)
 8049d4d:	c7 46 10 61 62 6c 65 	movl   $0x656c6261,0x10(%esi)
 8049d54:	c7 46 14 20 74 6f 20 	movl   $0x206f7420,0x14(%esi)
 8049d5b:	c7 46 18 72 65 73 6f 	movl   $0x6f736572,0x18(%esi)
 8049d62:	c7 46 1c 6c 76 65 20 	movl   $0x2065766c,0x1c(%esi)
 8049d69:	c7 46 20 73 65 72 76 	movl   $0x76726573,0x20(%esi)
 8049d70:	c7 46 24 65 72 20 61 	movl   $0x61207265,0x24(%esi)
 8049d77:	c7 46 28 64 64 72 65 	movl   $0x65726464,0x28(%esi)
 8049d7e:	66 c7 46 2c 73 73    	movw   $0x7373,0x2c(%esi)
 8049d84:	c6 46 2e 00          	movb   $0x0,0x2e(%esi)
 8049d88:	83 ec 0c             	sub    $0xc,%esp
 8049d8b:	53                   	push   %ebx
 8049d8c:	e8 0f eb ff ff       	call   80488a0 <close@plt>
 8049d91:	83 c4 10             	add    $0x10,%esp
 8049d94:	b8 ff ff ff ff       	mov    $0xffffffff,%eax
 8049d99:	e9 31 ff ff ff       	jmp    8049ccf <init_driver+0xe1>
 8049d9e:	83 ec 0c             	sub    $0xc,%esp
 8049da1:	68 cc a3 04 08       	push   $0x804a3cc
 8049da6:	68 8c a3 04 08       	push   $0x804a38c
 8049dab:	6a ff                	push   $0xffffffff
 8049dad:	6a 01                	push   $0x1
 8049daf:	56                   	push   %esi
 8049db0:	e8 0b eb ff ff       	call   80488c0 <__sprintf_chk@plt>
 8049db5:	83 c4 14             	add    $0x14,%esp
 8049db8:	53                   	push   %ebx
 8049db9:	e8 e2 ea ff ff       	call   80488a0 <close@plt>
 8049dbe:	83 c4 10             	add    $0x10,%esp
 8049dc1:	b8 ff ff ff ff       	mov    $0xffffffff,%eax
 8049dc6:	e9 04 ff ff ff       	jmp    8049ccf <init_driver+0xe1>
 8049dcb:	e8 c0 e9 ff ff       	call   8048790 <__stack_chk_fail@plt>

08049dd0 <driver_post>:
 8049dd0:	53                   	push   %ebx
 8049dd1:	83 ec 08             	sub    $0x8,%esp
 8049dd4:	8b 54 24 10          	mov    0x10(%esp),%edx
 8049dd8:	8b 44 24 18          	mov    0x18(%esp),%eax
 8049ddc:	8b 5c 24 1c          	mov    0x1c(%esp),%ebx
 8049de0:	85 c0                	test   %eax,%eax
 8049de2:	75 17                	jne    8049dfb <driver_post+0x2b>
 8049de4:	85 d2                	test   %edx,%edx
 8049de6:	74 05                	je     8049ded <driver_post+0x1d>
 8049de8:	80 3a 00             	cmpb   $0x0,(%edx)
 8049deb:	75 34                	jne    8049e21 <driver_post+0x51>
 8049ded:	66 c7 03 4f 4b       	movw   $0x4b4f,(%ebx)
 8049df2:	c6 43 02 00          	movb   $0x0,0x2(%ebx)
 8049df6:	83 c4 08             	add    $0x8,%esp
 8049df9:	5b                   	pop    %ebx
 8049dfa:	c3                   	ret    
 8049dfb:	83 ec 04             	sub    $0x4,%esp
 8049dfe:	ff 74 24 18          	pushl  0x18(%esp)
 8049e02:	68 da a3 04 08       	push   $0x804a3da
 8049e07:	6a 01                	push   $0x1
 8049e09:	e8 32 ea ff ff       	call   8048840 <__printf_chk@plt>
 8049e0e:	66 c7 03 4f 4b       	movw   $0x4b4f,(%ebx)
 8049e13:	c6 43 02 00          	movb   $0x0,0x2(%ebx)
 8049e17:	83 c4 10             	add    $0x10,%esp
 8049e1a:	b8 00 00 00 00       	mov    $0x0,%eax
 8049e1f:	eb d5                	jmp    8049df6 <driver_post+0x26>
 8049e21:	83 ec 04             	sub    $0x4,%esp
 8049e24:	53                   	push   %ebx
 8049e25:	ff 74 24 1c          	pushl  0x1c(%esp)
 8049e29:	68 f1 a3 04 08       	push   $0x804a3f1
 8049e2e:	52                   	push   %edx
 8049e2f:	68 f9 a3 04 08       	push   $0x804a3f9
 8049e34:	68 6e 3b 00 00       	push   $0x3b6e
 8049e39:	68 cc a3 04 08       	push   $0x804a3cc
 8049e3e:	e8 9c f5 ff ff       	call   80493df <submitr>
 8049e43:	83 c4 20             	add    $0x20,%esp
 8049e46:	eb ae                	jmp    8049df6 <driver_post+0x26>
 8049e48:	66 90                	xchg   %ax,%ax
 8049e4a:	66 90                	xchg   %ax,%ax
 8049e4c:	66 90                	xchg   %ax,%ax
 8049e4e:	66 90                	xchg   %ax,%ax

08049e50 <__libc_csu_init>:
 8049e50:	55                   	push   %ebp
 8049e51:	57                   	push   %edi
 8049e52:	56                   	push   %esi
 8049e53:	53                   	push   %ebx
 8049e54:	e8 b7 ea ff ff       	call   8048910 <__x86.get_pc_thunk.bx>
 8049e59:	81 c3 a7 21 00 00    	add    $0x21a7,%ebx
 8049e5f:	83 ec 0c             	sub    $0xc,%esp
 8049e62:	8b 6c 24 20          	mov    0x20(%esp),%ebp
 8049e66:	8d b3 0c ff ff ff    	lea    -0xf4(%ebx),%esi
 8049e6c:	e8 83 e8 ff ff       	call   80486f4 <_init>
 8049e71:	8d 83 08 ff ff ff    	lea    -0xf8(%ebx),%eax
 8049e77:	29 c6                	sub    %eax,%esi
 8049e79:	c1 fe 02             	sar    $0x2,%esi
 8049e7c:	85 f6                	test   %esi,%esi
 8049e7e:	74 25                	je     8049ea5 <__libc_csu_init+0x55>
 8049e80:	31 ff                	xor    %edi,%edi
 8049e82:	8d b6 00 00 00 00    	lea    0x0(%esi),%esi
 8049e88:	83 ec 04             	sub    $0x4,%esp
 8049e8b:	ff 74 24 2c          	pushl  0x2c(%esp)
 8049e8f:	ff 74 24 2c          	pushl  0x2c(%esp)
 8049e93:	55                   	push   %ebp
 8049e94:	ff 94 bb 08 ff ff ff 	call   *-0xf8(%ebx,%edi,4)
 8049e9b:	83 c7 01             	add    $0x1,%edi
 8049e9e:	83 c4 10             	add    $0x10,%esp
 8049ea1:	39 fe                	cmp    %edi,%esi
 8049ea3:	75 e3                	jne    8049e88 <__libc_csu_init+0x38>
 8049ea5:	83 c4 0c             	add    $0xc,%esp
 8049ea8:	5b                   	pop    %ebx
 8049ea9:	5e                   	pop    %esi
 8049eaa:	5f                   	pop    %edi
 8049eab:	5d                   	pop    %ebp
 8049eac:	c3                   	ret    
 8049ead:	8d 76 00             	lea    0x0(%esi),%esi

08049eb0 <__libc_csu_fini>:
 8049eb0:	f3 c3                	repz ret 

Disassembly of section .fini:

08049eb4 <_fini>:
 8049eb4:	53                   	push   %ebx
 8049eb5:	83 ec 08             	sub    $0x8,%esp
 8049eb8:	e8 53 ea ff ff       	call   8048910 <__x86.get_pc_thunk.bx>
 8049ebd:	81 c3 43 21 00 00    	add    $0x2143,%ebx
 8049ec3:	83 c4 08             	add    $0x8,%esp
 8049ec6:	5b                   	pop    %ebx
 8049ec7:	c3                   	ret    

Disassembly of section .rodata:

08049ee0 <_fp_hw>:
 8049ee0:	03 00                	add    (%eax),%eax
	...

08049ee4 <_IO_stdin_used>:
 8049ee4:	01 00                	add    %eax,(%eax)
 8049ee6:	02 00                	add    (%eax),%al
 8049ee8:	72 00                	jb     8049eea <_IO_stdin_used+0x6>
 8049eea:	25 73 3a 20 45       	and    $0x45203a73,%eax
 8049eef:	72 72                	jb     8049f63 <_IO_stdin_used+0x7f>
 8049ef1:	6f                   	outsl  %ds:(%esi),(%dx)
 8049ef2:	72 3a                	jb     8049f2e <_IO_stdin_used+0x4a>
 8049ef4:	20 43 6f             	and    %al,0x6f(%ebx)
 8049ef7:	75 6c                	jne    8049f65 <_IO_stdin_used+0x81>
 8049ef9:	64 6e                	outsb  %fs:(%esi),(%dx)
 8049efb:	27                   	daa    
 8049efc:	74 20                	je     8049f1e <_IO_stdin_used+0x3a>
 8049efe:	6f                   	outsl  %ds:(%esi),(%dx)
 8049eff:	70 65                	jo     8049f66 <_IO_stdin_used+0x82>
 8049f01:	6e                   	outsb  %ds:(%esi),(%dx)
 8049f02:	20 25 73 0a 00 55    	and    %ah,0x55000a73
 8049f08:	73 61                	jae    8049f6b <_IO_stdin_used+0x87>
 8049f0a:	67 65 3a 20          	cmp    %gs:(%bx,%si),%ah
 8049f0e:	25 73 20 5b 3c       	and    $0x3c5b2073,%eax
 8049f13:	69 6e 70 75 74 5f 66 	imul   $0x665f7475,0x70(%esi),%ebp
 8049f1a:	69 6c 65 3e 5d 0a 00 	imul   $0x54000a5d,0x3e(%ebp,%eiz,2),%ebp
 8049f21:	54 
 8049f22:	68 61 74 27 73       	push   $0x73277461
 8049f27:	20 6e 75             	and    %ch,0x75(%esi)
 8049f2a:	6d                   	insl   (%dx),%es:(%edi)
 8049f2b:	62 65 72             	bound  %esp,0x72(%ebp)
 8049f2e:	20 32                	and    %dh,(%edx)
 8049f30:	2e 20 20             	and    %ah,%cs:(%eax)
 8049f33:	4b                   	dec    %ebx
 8049f34:	65 65 70 20          	gs gs jo 8049f58 <_IO_stdin_used+0x74>
 8049f38:	67 6f                	outsl  %ds:(%si),(%dx)
 8049f3a:	69 6e 67 21 00 48 61 	imul   $0x61480021,0x67(%esi),%ebp
 8049f41:	6c                   	insb   (%dx),%es:(%edi)
 8049f42:	66 77 61             	data16 ja 8049fa6 <_IO_stdin_used+0xc2>
 8049f45:	79 20                	jns    8049f67 <_IO_stdin_used+0x83>
 8049f47:	74 68                	je     8049fb1 <_IO_stdin_used+0xcd>
 8049f49:	65 72 65             	gs jb  8049fb1 <_IO_stdin_used+0xcd>
 8049f4c:	21 00                	and    %eax,(%eax)
 8049f4e:	47                   	inc    %edi
 8049f4f:	6f                   	outsl  %ds:(%esi),(%dx)
 8049f50:	6f                   	outsl  %ds:(%esi),(%dx)
 8049f51:	64 20 77 6f          	and    %dh,%fs:0x6f(%edi)
 8049f55:	72 6b                	jb     8049fc2 <_IO_stdin_used+0xde>
 8049f57:	21 20                	and    %esp,(%eax)
 8049f59:	20 4f 6e             	and    %cl,0x6e(%edi)
 8049f5c:	20 74 6f 20          	and    %dh,0x20(%edi,%ebp,2)
 8049f60:	74 68                	je     8049fca <_IO_stdin_used+0xe6>
 8049f62:	65 20 6e 65          	and    %ch,%gs:0x65(%esi)
 8049f66:	78 74                	js     8049fdc <_IO_stdin_used+0xf8>
 8049f68:	2e 2e 2e 00 57 65    	cs cs add %dl,%cs:0x65(%edi)
 8049f6e:	6c                   	insb   (%dx),%es:(%edi)
 8049f6f:	63 6f 6d             	arpl   %bp,0x6d(%edi)
 8049f72:	65 20 74 6f 20       	and    %dh,%gs:0x20(%edi,%ebp,2)
 8049f77:	6d                   	insl   (%dx),%es:(%edi)
 8049f78:	79 20                	jns    8049f9a <_IO_stdin_used+0xb6>
 8049f7a:	66 69 65 6e 64 69    	imul   $0x6964,0x6e(%ebp),%sp
 8049f80:	73 68                	jae    8049fea <_IO_stdin_used+0x106>
 8049f82:	20 6c 69 74          	and    %ch,0x74(%ecx,%ebp,2)
 8049f86:	74 6c                	je     8049ff4 <_IO_stdin_used+0x110>
 8049f88:	65 20 62 6f          	and    %ah,%gs:0x6f(%edx)
 8049f8c:	6d                   	insl   (%dx),%es:(%edi)
 8049f8d:	62 2e                	bound  %ebp,(%esi)
 8049f8f:	20 59 6f             	and    %bl,0x6f(%ecx)
 8049f92:	75 20                	jne    8049fb4 <_IO_stdin_used+0xd0>
 8049f94:	68 61 76 65 20       	push   $0x20657661
 8049f99:	36 20 70 68          	and    %dh,%ss:0x68(%eax)
 8049f9d:	61                   	popa   
 8049f9e:	73 65                	jae    804a005 <_IO_stdin_used+0x121>
 8049fa0:	73 20                	jae    8049fc2 <_IO_stdin_used+0xde>
 8049fa2:	77 69                	ja     804a00d <_IO_stdin_used+0x129>
 8049fa4:	74 68                	je     804a00e <_IO_stdin_used+0x12a>
 8049fa6:	00 00                	add    %al,(%eax)
 8049fa8:	77 68                	ja     804a012 <_IO_stdin_used+0x12e>
 8049faa:	69 63 68 20 74 6f 20 	imul   $0x206f7420,0x68(%ebx),%esp
 8049fb1:	62 6c 6f 77          	bound  %ebp,0x77(%edi,%ebp,2)
 8049fb5:	20 79 6f             	and    %bh,0x6f(%ecx)
 8049fb8:	75 72                	jne    804a02c <_IO_stdin_used+0x148>
 8049fba:	73 65                	jae    804a021 <_IO_stdin_used+0x13d>
 8049fbc:	6c                   	insb   (%dx),%es:(%edi)
 8049fbd:	66 20 75 70          	data16 and %dh,0x70(%ebp)
 8049fc1:	2e 20 48 61          	and    %cl,%cs:0x61(%eax)
 8049fc5:	76 65                	jbe    804a02c <_IO_stdin_used+0x148>
 8049fc7:	20 61 20             	and    %ah,0x20(%ecx)
 8049fca:	6e                   	outsb  %ds:(%esi),(%dx)
 8049fcb:	69 63 65 20 64 61 79 	imul   $0x79616420,0x65(%ebx),%esp
 8049fd2:	21 00                	and    %eax,(%eax)
 8049fd4:	50                   	push   %eax
 8049fd5:	68 61 73 65 20       	push   $0x20657361
 8049fda:	31 20                	xor    %esp,(%eax)
 8049fdc:	64 65 66 75 73       	fs gs data16 jne 804a054 <_IO_stdin_used+0x170>
 8049fe1:	65 64 2e 20 48 6f    	gs fs and %cl,%cs:0x6f(%eax)
 8049fe7:	77 20                	ja     804a009 <_IO_stdin_used+0x125>
 8049fe9:	61                   	popa   
 8049fea:	62 6f 75             	bound  %ebp,0x75(%edi)
 8049fed:	74 20                	je     804a00f <_IO_stdin_used+0x12b>
 8049fef:	74 68                	je     804a059 <_IO_stdin_used+0x175>
 8049ff1:	65 20 6e 65          	and    %ch,%gs:0x65(%esi)
 8049ff5:	78 74                	js     804a06b <_IO_stdin_used+0x187>
 8049ff7:	20 6f 6e             	and    %ch,0x6e(%edi)
 8049ffa:	65 3f                	gs aas 
 8049ffc:	00 00                	add    %al,(%eax)
 8049ffe:	00 00                	add    %al,(%eax)
 804a000:	53                   	push   %ebx
 804a001:	6f                   	outsl  %ds:(%esi),(%dx)
 804a002:	20 79 6f             	and    %bh,0x6f(%ecx)
 804a005:	75 20                	jne    804a027 <_IO_stdin_used+0x143>
 804a007:	67 6f                	outsl  %ds:(%si),(%dx)
 804a009:	74 20                	je     804a02b <_IO_stdin_used+0x147>
 804a00b:	74 68                	je     804a075 <_IO_stdin_used+0x191>
 804a00d:	61                   	popa   
 804a00e:	74 20                	je     804a030 <_IO_stdin_used+0x14c>
 804a010:	6f                   	outsl  %ds:(%esi),(%dx)
 804a011:	6e                   	outsb  %ds:(%esi),(%dx)
 804a012:	65 2e 20 20          	gs and %ah,%cs:(%eax)
 804a016:	54                   	push   %esp
 804a017:	72 79                	jb     804a092 <_IO_stdin_used+0x1ae>
 804a019:	20 74 68 69          	and    %dh,0x69(%eax,%ebp,2)
 804a01d:	73 20                	jae    804a03f <_IO_stdin_used+0x15b>
 804a01f:	6f                   	outsl  %ds:(%esi),(%dx)
 804a020:	6e                   	outsb  %ds:(%esi),(%dx)
 804a021:	65 2e 00 49 20       	gs add %cl,%cs:0x20(%ecx)
 804a026:	63 61 6e             	arpl   %sp,0x6e(%ecx)
 804a029:	20 73 65             	and    %dh,0x65(%ebx)
 804a02c:	65 20 52 75          	and    %dl,%gs:0x75(%edx)
 804a030:	73 73                	jae    804a0a5 <array.3048+0x5>
 804a032:	69 61 20 66 72 6f 6d 	imul   $0x6d6f7266,0x20(%ecx),%esp
 804a039:	20 6d 79             	and    %ch,0x79(%ebp)
 804a03c:	20 68 6f             	and    %ch,0x6f(%eax)
 804a03f:	75 73                	jne    804a0b4 <array.3048+0x14>
 804a041:	65 21 00             	and    %eax,%gs:(%eax)
 804a044:	57                   	push   %edi
 804a045:	6f                   	outsl  %ds:(%esi),(%dx)
 804a046:	77 21                	ja     804a069 <_IO_stdin_used+0x185>
 804a048:	20 59 6f             	and    %bl,0x6f(%ecx)
 804a04b:	75 27                	jne    804a074 <_IO_stdin_used+0x190>
 804a04d:	76 65                	jbe    804a0b4 <array.3048+0x14>
 804a04f:	20 64 65 66          	and    %ah,0x66(%ebp,%eiz,2)
 804a053:	75 73                	jne    804a0c8 <array.3048+0x28>
 804a055:	65 64 20 74 68 65    	gs and %dh,%fs:0x65(%eax,%ebp,2)
 804a05b:	20 73 65             	and    %dh,0x65(%ebx)
 804a05e:	63 72 65             	arpl   %si,0x65(%edx)
 804a061:	74 20                	je     804a083 <_IO_stdin_used+0x19f>
 804a063:	73 74                	jae    804a0d9 <array.3048+0x39>
 804a065:	61                   	popa   
 804a066:	67 65 21 00          	and    %eax,%gs:(%bx,%si)
	...
 804a07e:	00 00                	add    %al,(%eax)
 804a080:	20 8c 04 08 27 8c 04 	and    %cl,0x48c2708(%esp,%eax,1)
 804a087:	08 72 8c             	or     %dh,-0x74(%edx)
 804a08a:	04 08                	add    $0x8,%al
 804a08c:	79 8c                	jns    804a01a <_IO_stdin_used+0x136>
 804a08e:	04 08                	add    $0x8,%al
 804a090:	80 8c 04 08 87 8c 04 	orb    $0x8,0x48c8708(%esp,%eax,1)
 804a097:	08 
 804a098:	8e 8c 04 08 95 8c 04 	mov    0x48c9508(%esp,%eax,1),%cs
 804a09f:	08 02                	or     %al,(%edx)

0804a0a0 <array.3048>:
 804a0a0:	02 00                	add    (%eax),%al
 804a0a2:	00 00                	add    %al,(%eax)
 804a0a4:	0a 00                	or     (%eax),%al
 804a0a6:	00 00                	add    %al,(%eax)
 804a0a8:	06                   	push   %es
 804a0a9:	00 00                	add    %al,(%eax)
 804a0ab:	00 01                	add    %al,(%ecx)
 804a0ad:	00 00                	add    %al,(%eax)
 804a0af:	00 0c 00             	add    %cl,(%eax,%eax,1)
 804a0b2:	00 00                	add    %al,(%eax)
 804a0b4:	10 00                	adc    %al,(%eax)
 804a0b6:	00 00                	add    %al,(%eax)
 804a0b8:	09 00                	or     %eax,(%eax)
 804a0ba:	00 00                	add    %al,(%eax)
 804a0bc:	03 00                	add    (%eax),%eax
 804a0be:	00 00                	add    %al,(%eax)
 804a0c0:	04 00                	add    $0x0,%al
 804a0c2:	00 00                	add    %al,(%eax)
 804a0c4:	07                   	pop    %es
 804a0c5:	00 00                	add    %al,(%eax)
 804a0c7:	00 0e                	add    %cl,(%esi)
 804a0c9:	00 00                	add    %al,(%eax)
 804a0cb:	00 05 00 00 00 0b    	add    %al,0xb000000
 804a0d1:	00 00                	add    %al,(%eax)
 804a0d3:	00 08                	add    %cl,(%eax)
 804a0d5:	00 00                	add    %al,(%eax)
 804a0d7:	00 0f                	add    %cl,(%edi)
 804a0d9:	00 00                	add    %al,(%eax)
 804a0db:	00 0d 00 00 00 53    	add    %cl,0x53000000
 804a0e1:	6f                   	outsl  %ds:(%esi),(%dx)
 804a0e2:	20 79 6f             	and    %bh,0x6f(%ecx)
 804a0e5:	75 20                	jne    804a107 <array.3048+0x67>
 804a0e7:	74 68                	je     804a151 <array.3048+0xb1>
 804a0e9:	69 6e 6b 20 79 6f 75 	imul   $0x756f7920,0x6b(%esi),%ebp
 804a0f0:	20 63 61             	and    %ah,0x61(%ebx)
 804a0f3:	6e                   	outsb  %ds:(%esi),(%dx)
 804a0f4:	20 73 74             	and    %dh,0x74(%ebx)
 804a0f7:	6f                   	outsl  %ds:(%esi),(%dx)
 804a0f8:	70 20                	jo     804a11a <array.3048+0x7a>
 804a0fa:	74 68                	je     804a164 <array.3048+0xc4>
 804a0fc:	65 20 62 6f          	and    %ah,%gs:0x6f(%edx)
 804a100:	6d                   	insl   (%dx),%es:(%edi)
 804a101:	62 20                	bound  %esp,(%eax)
 804a103:	77 69                	ja     804a16e <array.3048+0xce>
 804a105:	74 68                	je     804a16f <array.3048+0xcf>
 804a107:	20 63 74             	and    %ah,0x74(%ebx)
 804a10a:	72 6c                	jb     804a178 <array.3048+0xd8>
 804a10c:	2d 63 2c 20 64       	sub    $0x64202c63,%eax
 804a111:	6f                   	outsl  %ds:(%esi),(%dx)
 804a112:	20 79 6f             	and    %bh,0x6f(%ecx)
 804a115:	75 3f                	jne    804a156 <array.3048+0xb6>
 804a117:	00 43 75             	add    %al,0x75(%ebx)
 804a11a:	72 73                	jb     804a18f <array.3048+0xef>
 804a11c:	65 73 2c             	gs jae 804a14b <array.3048+0xab>
 804a11f:	20 79 6f             	and    %bh,0x6f(%ecx)
 804a122:	75 27                	jne    804a14b <array.3048+0xab>
 804a124:	76 65                	jbe    804a18b <array.3048+0xeb>
 804a126:	20 66 6f             	and    %ah,0x6f(%esi)
 804a129:	75 6e                	jne    804a199 <array.3048+0xf9>
 804a12b:	64 20 74 68 65       	and    %dh,%fs:0x65(%eax,%ebp,2)
 804a130:	20 73 65             	and    %dh,0x65(%ebx)
 804a133:	63 72 65             	arpl   %si,0x65(%edx)
 804a136:	74 20                	je     804a158 <array.3048+0xb8>
 804a138:	70 68                	jo     804a1a2 <array.3048+0x102>
 804a13a:	61                   	popa   
 804a13b:	73 65                	jae    804a1a2 <array.3048+0x102>
 804a13d:	21 00                	and    %eax,(%eax)
 804a13f:	00 42 75             	add    %al,0x75(%edx)
 804a142:	74 20                	je     804a164 <array.3048+0xc4>
 804a144:	66 69 6e 64 69 6e    	imul   $0x6e69,0x64(%esi),%bp
 804a14a:	67 20 69 74          	and    %ch,0x74(%bx,%di)
 804a14e:	20 61 6e             	and    %ah,0x6e(%ecx)
 804a151:	64 20 73 6f          	and    %dh,%fs:0x6f(%ebx)
 804a155:	6c                   	insb   (%dx),%es:(%edi)
 804a156:	76 69                	jbe    804a1c1 <array.3048+0x121>
 804a158:	6e                   	outsb  %ds:(%esi),(%dx)
 804a159:	67 20 69 74          	and    %ch,0x74(%bx,%di)
 804a15d:	20 61 72             	and    %ah,0x72(%ecx)
 804a160:	65 20 71 75          	and    %dh,%gs:0x75(%ecx)
 804a164:	69 74 65 20 64 69 66 	imul   $0x66666964,0x20(%ebp,%eiz,2),%esi
 804a16b:	66 
 804a16c:	65 72 65             	gs jb  804a1d4 <array.3048+0x134>
 804a16f:	6e                   	outsb  %ds:(%esi),(%dx)
 804a170:	74 2e                	je     804a1a0 <array.3048+0x100>
 804a172:	2e 2e 00 00          	cs add %al,%cs:(%eax)
 804a176:	00 00                	add    %al,(%eax)
 804a178:	43                   	inc    %ebx
 804a179:	6f                   	outsl  %ds:(%esi),(%dx)
 804a17a:	6e                   	outsb  %ds:(%esi),(%dx)
 804a17b:	67 72 61             	addr16 jb 804a1df <array.3048+0x13f>
 804a17e:	74 75                	je     804a1f5 <array.3048+0x155>
 804a180:	6c                   	insb   (%dx),%es:(%edi)
 804a181:	61                   	popa   
 804a182:	74 69                	je     804a1ed <array.3048+0x14d>
 804a184:	6f                   	outsl  %ds:(%esi),(%dx)
 804a185:	6e                   	outsb  %ds:(%esi),(%dx)
 804a186:	73 21                	jae    804a1a9 <array.3048+0x109>
 804a188:	20 59 6f             	and    %bl,0x6f(%ecx)
 804a18b:	75 27                	jne    804a1b4 <array.3048+0x114>
 804a18d:	76 65                	jbe    804a1f4 <array.3048+0x154>
 804a18f:	20 64 65 66          	and    %ah,0x66(%ebp,%eiz,2)
 804a193:	75 73                	jne    804a208 <array.3048+0x168>
 804a195:	65 64 20 74 68 65    	gs and %dh,%fs:0x65(%eax,%ebp,2)
 804a19b:	20 62 6f             	and    %ah,0x6f(%edx)
 804a19e:	6d                   	insl   (%dx),%es:(%edi)
 804a19f:	62 21                	bound  %esp,(%ecx)
 804a1a1:	00 57 65             	add    %dl,0x65(%edi)
 804a1a4:	6c                   	insb   (%dx),%es:(%edi)
 804a1a5:	6c                   	insb   (%dx),%es:(%edi)
 804a1a6:	2e 2e 2e 00 4f 4b    	cs cs add %cl,%cs:0x4b(%edi)
 804a1ac:	2e 20 3a             	and    %bh,%cs:(%edx)
 804a1af:	2d 29 00 49 6e       	sub    $0x6e490029,%eax
 804a1b4:	76 61                	jbe    804a217 <array.3048+0x177>
 804a1b6:	6c                   	insb   (%dx),%es:(%edi)
 804a1b7:	69 64 20 70 68 61 73 	imul   $0x65736168,0x70(%eax,%eiz,1),%esp
 804a1be:	65 
 804a1bf:	25 73 0a 00 0a       	and    $0xa000a73,%eax
 804a1c4:	42                   	inc    %edx
 804a1c5:	4f                   	dec    %edi
 804a1c6:	4f                   	dec    %edi
 804a1c7:	4d                   	dec    %ebp
 804a1c8:	21 21                	and    %esp,(%ecx)
 804a1ca:	21 00                	and    %eax,(%eax)
 804a1cc:	54                   	push   %esp
 804a1cd:	68 65 20 62 6f       	push   $0x6f622065
 804a1d2:	6d                   	insl   (%dx),%es:(%edi)
 804a1d3:	62 20                	bound  %esp,(%eax)
 804a1d5:	68 61 73 20 62       	push   $0x62207361
 804a1da:	6c                   	insb   (%dx),%es:(%edi)
 804a1db:	6f                   	outsl  %ds:(%esi),(%dx)
 804a1dc:	77 6e                	ja     804a24c <array.3048+0x1ac>
 804a1de:	20 75 70             	and    %dh,0x70(%ebp)
 804a1e1:	2e 00 25 64 20 25 64 	add    %ah,%cs:0x64252064
 804a1e8:	20 25 64 20 25 64    	and    %ah,0x64252064
 804a1ee:	20 25 64 20 25 64    	and    %ah,0x64252064
 804a1f4:	00 45 72             	add    %al,0x72(%ebp)
 804a1f7:	72 6f                	jb     804a268 <array.3048+0x1c8>
 804a1f9:	72 3a                	jb     804a235 <array.3048+0x195>
 804a1fb:	20 50 72             	and    %dl,0x72(%eax)
 804a1fe:	65 6d                	gs insl (%dx),%es:(%edi)
 804a200:	61                   	popa   
 804a201:	74 75                	je     804a278 <array.3048+0x1d8>
 804a203:	72 65                	jb     804a26a <array.3048+0x1ca>
 804a205:	20 45 4f             	and    %al,0x4f(%ebp)
 804a208:	46                   	inc    %esi
 804a209:	20 6f 6e             	and    %ch,0x6e(%edi)
 804a20c:	20 73 74             	and    %dh,0x74(%ebx)
 804a20f:	64 69 6e 00 47 52 41 	imul   $0x44415247,%fs:0x0(%esi),%ebp
 804a216:	44 
 804a217:	45                   	inc    %ebp
 804a218:	5f                   	pop    %edi
 804a219:	42                   	inc    %edx
 804a21a:	4f                   	dec    %edi
 804a21b:	4d                   	dec    %ebp
 804a21c:	42                   	inc    %edx
 804a21d:	00 45 72             	add    %al,0x72(%ebp)
 804a220:	72 6f                	jb     804a291 <array.3048+0x1f1>
 804a222:	72 3a                	jb     804a25e <array.3048+0x1be>
 804a224:	20 49 6e             	and    %cl,0x6e(%ecx)
 804a227:	70 75                	jo     804a29e <array.3048+0x1fe>
 804a229:	74 20                	je     804a24b <array.3048+0x1ab>
 804a22b:	6c                   	insb   (%dx),%es:(%edi)
 804a22c:	69 6e 65 20 74 6f 6f 	imul   $0x6f6f7420,0x65(%esi),%ebp
 804a233:	20 6c 6f 6e          	and    %ch,0x6e(%edi,%ebp,2)
 804a237:	67 00 2a             	add    %ch,(%bp,%si)
 804a23a:	2a 2a                	sub    (%edx),%ch
 804a23c:	74 72                	je     804a2b0 <array.3048+0x210>
 804a23e:	75 6e                	jne    804a2ae <array.3048+0x20e>
 804a240:	63 61 74             	arpl   %sp,0x74(%ecx)
 804a243:	65 64 2a 2a          	gs sub %fs:(%edx),%ch
 804a247:	2a 00                	sub    (%eax),%al
 804a249:	25 64 20 25 64       	and    $0x64252064,%eax
 804a24e:	20 25 73 00 44 72    	and    %ah,0x72440073
 804a254:	45                   	inc    %ebp
 804a255:	76 69                	jbe    804a2c0 <array.3048+0x220>
 804a257:	6c                   	insb   (%dx),%es:(%edi)
 804a258:	00 67 72             	add    %ah,0x72(%edi)
 804a25b:	65 61                	gs popa 
 804a25d:	74 77                	je     804a2d6 <array.3048+0x236>
 804a25f:	68 69 74 65 2e       	push   $0x2e657469
 804a264:	69 63 73 2e 63 73 2e 	imul   $0x2e73632e,0x73(%ebx),%esp
 804a26b:	63 6d 75             	arpl   %bp,0x75(%ebp)
 804a26e:	2e 65 64 75 00       	cs gs fs jne,pn 804a273 <array.3048+0x1d3>
 804a273:	61                   	popa   
 804a274:	6e                   	outsb  %ds:(%esi),(%dx)
 804a275:	67 65 6c             	gs insb (%dx),%es:(%di)
 804a278:	73 68                	jae    804a2e2 <array.3048+0x242>
 804a27a:	61                   	popa   
 804a27b:	72 6b                	jb     804a2e8 <array.3048+0x248>
 804a27d:	2e 69 63 73 2e 63 73 	imul   $0x2e73632e,%cs:0x73(%ebx),%esp
 804a284:	2e 
 804a285:	63 6d 75             	arpl   %bp,0x75(%ebp)
 804a288:	2e 65 64 75 00       	cs gs fs jne,pn 804a28d <array.3048+0x1ed>
 804a28d:	6d                   	insl   (%dx),%es:(%edi)
 804a28e:	61                   	popa   
 804a28f:	6b 6f 73 68          	imul   $0x68,0x73(%edi),%ebp
 804a293:	61                   	popa   
 804a294:	72 6b                	jb     804a301 <array.3048+0x261>
 804a296:	2e 69 63 73 2e 63 73 	imul   $0x2e73632e,%cs:0x73(%ebx),%esp
 804a29d:	2e 
 804a29e:	63 6d 75             	arpl   %bp,0x75(%ebp)
 804a2a1:	2e 65 64 75 00       	cs gs fs jne,pn 804a2a6 <array.3048+0x206>
 804a2a6:	00 00                	add    %al,(%eax)
 804a2a8:	50                   	push   %eax
 804a2a9:	72 6f                	jb     804a31a <array.3048+0x27a>
 804a2ab:	67 72 61             	addr16 jb 804a30f <array.3048+0x26f>
 804a2ae:	6d                   	insl   (%dx),%es:(%edi)
 804a2af:	20 74 69 6d          	and    %dh,0x6d(%ecx,%ebp,2)
 804a2b3:	65 64 20 6f 75       	gs and %ch,%fs:0x75(%edi)
 804a2b8:	74 20                	je     804a2da <array.3048+0x23a>
 804a2ba:	61                   	popa   
 804a2bb:	66 74 65             	data16 je 804a323 <array.3048+0x283>
 804a2be:	72 20                	jb     804a2e0 <array.3048+0x240>
 804a2c0:	25 64 20 73 65       	and    $0x65732064,%eax
 804a2c5:	63 6f 6e             	arpl   %bp,0x6e(%edi)
 804a2c8:	64 73 0a             	fs jae 804a2d5 <array.3048+0x235>
 804a2cb:	00 45 72             	add    %al,0x72(%ebp)
 804a2ce:	72 6f                	jb     804a33f <array.3048+0x29f>
 804a2d0:	72 3a                	jb     804a30c <array.3048+0x26c>
 804a2d2:	20 48 54             	and    %cl,0x54(%eax)
 804a2d5:	54                   	push   %esp
 804a2d6:	50                   	push   %eax
 804a2d7:	20 72 65             	and    %dh,0x65(%edx)
 804a2da:	71 75                	jno    804a351 <array.3048+0x2b1>
 804a2dc:	65 73 74             	gs jae 804a353 <array.3048+0x2b3>
 804a2df:	20 66 61             	and    %ah,0x61(%esi)
 804a2e2:	69 6c 65 64 20 77 69 	imul   $0x74697720,0x64(%ebp,%eiz,2),%ebp
 804a2e9:	74 
 804a2ea:	68 20 65 72 72       	push   $0x72726520
 804a2ef:	6f                   	outsl  %ds:(%esi),(%dx)
 804a2f0:	72 20                	jb     804a312 <array.3048+0x272>
 804a2f2:	25 64 3a 20 25       	and    $0x25203a64,%eax
 804a2f7:	73 00                	jae    804a2f9 <array.3048+0x259>
 804a2f9:	00 00                	add    %al,(%eax)
 804a2fb:	00 45 72             	add    %al,0x72(%ebp)
 804a2fe:	72 6f                	jb     804a36f <array.3048+0x2cf>
 804a300:	72 3a                	jb     804a33c <array.3048+0x29c>
 804a302:	20 52 65             	and    %dl,0x65(%edx)
 804a305:	73 75                	jae    804a37c <array.3048+0x2dc>
 804a307:	6c                   	insb   (%dx),%es:(%edi)
 804a308:	74 20                	je     804a32a <array.3048+0x28a>
 804a30a:	73 74                	jae    804a380 <array.3048+0x2e0>
 804a30c:	72 69                	jb     804a377 <array.3048+0x2d7>
 804a30e:	6e                   	outsb  %ds:(%esi),(%dx)
 804a30f:	67 20 63 6f          	and    %ah,0x6f(%bp,%di)
 804a313:	6e                   	outsb  %ds:(%esi),(%dx)
 804a314:	74 61                	je     804a377 <array.3048+0x2d7>
 804a316:	69 6e 73 20 61 6e 20 	imul   $0x206e6120,0x73(%esi),%ebp
 804a31d:	69 6c 6c 65 67 61 6c 	imul   $0x206c6167,0x65(%esp,%ebp,2),%ebp
 804a324:	20 
 804a325:	6f                   	outsl  %ds:(%esi),(%dx)
 804a326:	72 20                	jb     804a348 <array.3048+0x2a8>
 804a328:	75 6e                	jne    804a398 <array.3048+0x2f8>
 804a32a:	70 72                	jo     804a39e <array.3048+0x2fe>
 804a32c:	69 6e 74 61 62 6c 65 	imul   $0x656c6261,0x74(%esi),%ebp
 804a333:	20 63 68             	and    %ah,0x68(%ebx)
 804a336:	61                   	popa   
 804a337:	72 61                	jb     804a39a <array.3048+0x2fa>
 804a339:	63 74 65 72          	arpl   %si,0x72(%ebp,%eiz,2)
 804a33d:	2e 00 00             	add    %al,%cs:(%eax)
 804a340:	47                   	inc    %edi
 804a341:	45                   	inc    %ebp
 804a342:	54                   	push   %esp
 804a343:	20 2f                	and    %ch,(%edi)
 804a345:	25 73 2f 73 75       	and    $0x75732f73,%eax
 804a34a:	62 6d 69             	bound  %ebp,0x69(%ebp)
 804a34d:	74 72                	je     804a3c1 <array.3048+0x321>
 804a34f:	2e 70 6c             	jo,pn  804a3be <array.3048+0x31e>
 804a352:	2f                   	das    
 804a353:	3f                   	aas    
 804a354:	75 73                	jne    804a3c9 <array.3048+0x329>
 804a356:	65 72 69             	gs jb  804a3c2 <array.3048+0x322>
 804a359:	64 3d 25 73 26 6c    	fs cmp $0x6c267325,%eax
 804a35f:	61                   	popa   
 804a360:	62 3d 25 73 26 72    	bound  %edi,0x72267325
 804a366:	65 73 75             	gs jae 804a3de <array.3048+0x33e>
 804a369:	6c                   	insb   (%dx),%es:(%edi)
 804a36a:	74 3d                	je     804a3a9 <array.3048+0x309>
 804a36c:	25 73 26 73 75       	and    $0x75732673,%eax
 804a371:	62 6d 69             	bound  %ebp,0x69(%ebp)
 804a374:	74 3d                	je     804a3b3 <array.3048+0x313>
 804a376:	73 75                	jae    804a3ed <array.3048+0x34d>
 804a378:	62 6d 69             	bound  %ebp,0x69(%ebp)
 804a37b:	74 20                	je     804a39d <array.3048+0x2fd>
 804a37d:	48                   	dec    %eax
 804a37e:	54                   	push   %esp
 804a37f:	54                   	push   %esp
 804a380:	50                   	push   %eax
 804a381:	2f                   	das    
 804a382:	31 2e                	xor    %ebp,(%esi)
 804a384:	30 0d 0a 0d 0a 00    	xor    %cl,0xa0d0a
 804a38a:	00 00                	add    %al,(%eax)
 804a38c:	45                   	inc    %ebp
 804a38d:	72 72                	jb     804a401 <__GNU_EH_FRAME_HDR+0x1>
 804a38f:	6f                   	outsl  %ds:(%esi),(%dx)
 804a390:	72 3a                	jb     804a3cc <array.3048+0x32c>
 804a392:	20 55 6e             	and    %dl,0x6e(%ebp)
 804a395:	61                   	popa   
 804a396:	62 6c 65 20          	bound  %ebp,0x20(%ebp,%eiz,2)
 804a39a:	74 6f                	je     804a40b <__GNU_EH_FRAME_HDR+0xb>
 804a39c:	20 63 6f             	and    %ah,0x6f(%ebx)
 804a39f:	6e                   	outsb  %ds:(%esi),(%dx)
 804a3a0:	6e                   	outsb  %ds:(%esi),(%dx)
 804a3a1:	65 63 74 20 74       	arpl   %si,%gs:0x74(%eax,%eiz,1)
 804a3a6:	6f                   	outsl  %ds:(%esi),(%dx)
 804a3a7:	20 73 65             	and    %dh,0x65(%ebx)
 804a3aa:	72 76                	jb     804a422 <__GNU_EH_FRAME_HDR+0x22>
 804a3ac:	65 72 20             	gs jb  804a3cf <array.3048+0x32f>
 804a3af:	25 73 00 00 00       	and    $0x73,%eax
 804a3b4:	25 25 25 30 32       	and    $0x32302525,%eax
 804a3b9:	58                   	pop    %eax
 804a3ba:	00 25 73 20 25 64    	add    %ah,0x64252073
 804a3c0:	20 25 5b 61 2d 7a    	and    %ah,0x7a2d615b
 804a3c6:	41                   	inc    %ecx
 804a3c7:	2d 7a 20 5d 00       	sub    $0x5d207a,%eax
 804a3cc:	31 31                	xor    %esi,(%ecx)
 804a3ce:	34 2e                	xor    $0x2e,%al
 804a3d0:	32 31                	xor    (%ecx),%dh
 804a3d2:	32 2e                	xor    (%esi),%ch
 804a3d4:	38 31                	cmp    %dh,(%ecx)
 804a3d6:	2e 32 31             	xor    %cs:(%ecx),%dh
 804a3d9:	00 0a                	add    %cl,(%edx)
 804a3db:	41                   	inc    %ecx
 804a3dc:	55                   	push   %ebp
 804a3dd:	54                   	push   %esp
 804a3de:	4f                   	dec    %edi
 804a3df:	52                   	push   %edx
 804a3e0:	45                   	inc    %ebp
 804a3e1:	53                   	push   %ebx
 804a3e2:	55                   	push   %ebp
 804a3e3:	4c                   	dec    %esp
 804a3e4:	54                   	push   %esp
 804a3e5:	5f                   	pop    %edi
 804a3e6:	53                   	push   %ebx
 804a3e7:	54                   	push   %esp
 804a3e8:	52                   	push   %edx
 804a3e9:	49                   	dec    %ecx
 804a3ea:	4e                   	dec    %esi
 804a3eb:	47                   	inc    %edi
 804a3ec:	3d 25 73 0a 00       	cmp    $0xa7325,%eax
 804a3f1:	62 6f 6d             	bound  %ebp,0x6d(%edi)
 804a3f4:	62 6c 61 62          	bound  %ebp,0x62(%ecx,%eiz,2)
 804a3f8:	00 63 73             	add    %ah,0x73(%ebx)
 804a3fb:	61                   	popa   
 804a3fc:	70 70                	jo     804a46e <__GNU_EH_FRAME_HDR+0x6e>
	...

Disassembly of section .eh_frame_hdr:

0804a400 <__GNU_EH_FRAME_HDR>:
 804a400:	01 1b                	add    %ebx,(%ebx)
 804a402:	03 3b                	add    (%ebx),%edi
 804a404:	08 01                	or     %al,(%ecx)
 804a406:	00 00                	add    %al,(%eax)
 804a408:	20 00                	and    %al,(%eax)
 804a40a:	00 00                	add    %al,(%eax)
 804a40c:	20 e3                	and    %ah,%bl
 804a40e:	ff                   	(bad)  
 804a40f:	ff 24 01             	jmp    *(%ecx,%eax,1)
 804a412:	00 00                	add    %al,(%eax)
 804a414:	d0 e4                	shl    %ah
 804a416:	ff                   	(bad)  
 804a417:	ff 48 01             	decl   0x1(%eax)
 804a41a:	00 00                	add    %al,(%eax)
 804a41c:	db e5                	frstpm(287 only) 
 804a41e:	ff                   	(bad)  
 804a41f:	ff 5c 01 00          	lcall  *0x0(%ecx,%eax,1)
 804a423:	00 42 e7             	add    %al,-0x19(%edx)
 804a426:	ff                   	(bad)  
 804a427:	ff 94 01 00 00 65 e7 	call   *-0x189b0000(%ecx,%eax,1)
 804a42e:	ff                   	(bad)  
 804a42f:	ff                   	(bad)  
 804a430:	b8 01 00 00 d4       	mov    $0xd4000001,%eax
 804a435:	e7 ff                	out    %eax,$0xff
 804a437:	ff f0                	push   %eax
 804a439:	01 00                	add    %eax,(%eax)
 804a43b:	00 ad e8 ff ff 1c    	add    %ch,0x1cffffe8(%ebp)
 804a441:	02 00                	add    (%eax),%al
 804a443:	00 07                	add    %al,(%edi)
 804a445:	e9 ff ff 68 02       	jmp    a6da449 <_end+0x268d9d9>
 804a44a:	00 00                	add    %al,(%eax)
 804a44c:	80 e9 ff             	sub    $0xff,%cl
 804a44f:	ff a0 02 00 00 c8    	jmp    *-0x37fffffe(%eax)
 804a455:	e9 ff ff c8 02       	jmp    acda459 <_end+0x2c8d9e9>
 804a45a:	00 00                	add    %al,(%eax)
 804a45c:	cb                   	lret   
 804a45d:	ea ff ff 00 03 00 00 	ljmp   $0x0,$0x300ffff
 804a464:	1c eb                	sbb    $0xeb,%al
 804a466:	ff                   	(bad)  
 804a467:	ff                   	(bad)  
 804a468:	3c 03                	cmp    $0x3,%al
 804a46a:	00 00                	add    %al,(%eax)
 804a46c:	7a eb                	jp     804a459 <__GNU_EH_FRAME_HDR+0x59>
 804a46e:	ff                   	(bad)  
 804a46f:	ff 84 03 00 00 d4 eb 	incl   -0x142c0000(%ebx,%eax,1)
 804a476:	ff                   	(bad)  
 804a477:	ff ac 03 00 00 f3 eb 	ljmp   *-0x140d0000(%ebx,%eax,1)
 804a47e:	ff                   	(bad)  
 804a47f:	ff cc                	dec    %esp
 804a481:	03 00                	add    (%eax),%eax
 804a483:	00 12                	add    %dl,(%edx)
 804a485:	ec                   	in     (%dx),%al
 804a486:	ff                   	(bad)  
 804a487:	ff e0                	jmp    *%eax
 804a489:	03 00                	add    (%eax),%eax
 804a48b:	00 77 ec             	add    %dh,-0x14(%edi)
 804a48e:	ff                   	(bad)  
 804a48f:	ff 18                	lcall  *(%eax)
 804a491:	04 00                	add    $0x0,%al
 804a493:	00 8a ec ff ff 38    	add    %cl,0x38ffffec(%edx)
 804a499:	04 00                	add    $0x0,%al
 804a49b:	00 8c ec ff ff 4c 04 	add    %cl,0x44cffff(%esp,%ebp,8)
 804a4a2:	00 00                	add    %al,(%eax)
 804a4a4:	c2 ec ff             	ret    $0xffec
 804a4a7:	ff                   	(bad)  
 804a4a8:	78 04                	js     804a4ae <__GNU_EH_FRAME_HDR+0xae>
 804a4aa:	00 00                	add    %al,(%eax)
 804a4ac:	07                   	pop    %es
 804a4ad:	ed                   	in     (%dx),%eax
 804a4ae:	ff                   	(bad)  
 804a4af:	ff b0 04 00 00 2c    	pushl  0x2c000004(%eax)
 804a4b5:	ed                   	in     (%dx),%eax
 804a4b6:	ff                   	(bad)  
 804a4b7:	ff c8                	dec    %eax
 804a4b9:	04 00                	add    $0x0,%al
 804a4bb:	00 67 ed             	add    %ah,-0x13(%edi)
 804a4be:	ff                   	(bad)  
 804a4bf:	ff 00                	incl   (%eax)
 804a4c1:	05 00 00 66 ee       	add    $0xee660000,%eax
 804a4c6:	ff                   	(bad)  
 804a4c7:	ff 5c 05 00          	lcall  *0x0(%ebp,%eax,1)
 804a4cb:	00 0b                	add    %cl,(%ebx)
 804a4cd:	ef                   	out    %eax,(%dx)
 804a4ce:	ff                   	(bad)  
 804a4cf:	ff b4 05 00 00 2e ef 	pushl  -0x10d20000(%ebp,%eax,1)
 804a4d6:	ff                   	(bad)  
 804a4d7:	ff d4                	call   *%esp
 804a4d9:	05 00 00 df ef       	add    $0xefdf0000,%eax
 804a4de:	ff                   	(bad)  
 804a4df:	ff 24 06             	jmp    *(%esi,%eax,1)
 804a4e2:	00 00                	add    %al,(%eax)
 804a4e4:	b9 f7 ff ff 0c       	mov    $0xcfffff7,%ecx
 804a4e9:	08 00                	or     %al,(%eax)
 804a4eb:	00 ee                	add    %ch,%dh
 804a4ed:	f7 ff                	idiv   %edi
 804a4ef:	ff                   	(bad)  
 804a4f0:	38 08                	cmp    %cl,(%eax)
 804a4f2:	00 00                	add    %al,(%eax)
 804a4f4:	d0 f9                	sar    %cl
 804a4f6:	ff                   	(bad)  
 804a4f7:	ff                   	(bad)  
 804a4f8:	e8 08 00 00 50       	call   5804a505 <_end+0x4fffda95>
 804a4fd:	fa                   	cli    
 804a4fe:	ff                   	(bad)  
 804a4ff:	ff                   	(bad)  
 804a500:	38 09                	cmp    %cl,(%ecx)
 804a502:	00 00                	add    %al,(%eax)
 804a504:	b0 fa                	mov    $0xfa,%al
 804a506:	ff                   	(bad)  
 804a507:	ff                   	.byte 0xff
 804a508:	84 09                	test   %cl,(%ecx)
	...

Disassembly of section .eh_frame:

0804a50c <__FRAME_END__-0x88c>:
 804a50c:	14 00                	adc    $0x0,%al
 804a50e:	00 00                	add    %al,(%eax)
 804a510:	00 00                	add    %al,(%eax)
 804a512:	00 00                	add    %al,(%eax)
 804a514:	01 7a 52             	add    %edi,0x52(%edx)
 804a517:	00 01                	add    %al,(%ecx)
 804a519:	7c 08                	jl     804a523 <__GNU_EH_FRAME_HDR+0x123>
 804a51b:	01 1b                	add    %ebx,(%ebx)
 804a51d:	0c 04                	or     $0x4,%al
 804a51f:	04 88                	add    $0x88,%al
 804a521:	01 00                	add    %eax,(%eax)
 804a523:	00 20                	add    %ah,(%eax)
 804a525:	00 00                	add    %al,(%eax)
 804a527:	00 1c 00             	add    %bl,(%eax,%eax,1)
 804a52a:	00 00                	add    %al,(%eax)
 804a52c:	f4                   	hlt    
 804a52d:	e1 ff                	loope  804a52e <__GNU_EH_FRAME_HDR+0x12e>
 804a52f:	ff b0 01 00 00 00    	pushl  0x1(%eax)
 804a535:	0e                   	push   %cs
 804a536:	08 46 0e             	or     %al,0xe(%esi)
 804a539:	0c 4a                	or     $0x4a,%al
 804a53b:	0f 0b                	ud2    
 804a53d:	74 04                	je     804a543 <__GNU_EH_FRAME_HDR+0x143>
 804a53f:	78 00                	js     804a541 <__GNU_EH_FRAME_HDR+0x141>
 804a541:	3f                   	aas    
 804a542:	1a 3b                	sbb    (%ebx),%bh
 804a544:	2a 32                	sub    (%edx),%dh
 804a546:	24 22                	and    $0x22,%al
 804a548:	10 00                	adc    %al,(%eax)
 804a54a:	00 00                	add    %al,(%eax)
 804a54c:	40                   	inc    %eax
 804a54d:	00 00                	add    %al,(%eax)
 804a54f:	00 80 e3 ff ff 08    	add    %al,0x8ffffe3(%eax)
 804a555:	00 00                	add    %al,(%eax)
 804a557:	00 00                	add    %al,(%eax)
 804a559:	00 00                	add    %al,(%eax)
 804a55b:	00 34 00             	add    %dh,(%eax,%eax,1)
 804a55e:	00 00                	add    %al,(%eax)
 804a560:	54                   	push   %esp
 804a561:	00 00                	add    %al,(%eax)
 804a563:	00 77 e4             	add    %dh,-0x1c(%edi)
 804a566:	ff                   	(bad)  
 804a567:	ff 67 01             	jmp    *0x1(%edi)
 804a56a:	00 00                	add    %al,(%eax)
 804a56c:	00 44 0c 01          	add    %al,0x1(%esp,%ecx,1)
 804a570:	00 47 10             	add    %al,0x10(%edi)
 804a573:	05 02 75 00 44       	add    $0x44007502,%eax
 804a578:	0f 03 75 78          	lsl    0x78(%ebp),%esi
 804a57c:	06                   	push   %es
 804a57d:	10 03                	adc    %al,(%ebx)
 804a57f:	02 75 7c             	add    0x7c(%ebp),%dh
 804a582:	03 09                	add    (%ecx),%ecx
 804a584:	01 0a                	add    %ecx,(%edx)
 804a586:	c1 0c 01 00          	rorl   $0x0,(%ecx,%eax,1)
 804a58a:	41                   	inc    %ecx
 804a58b:	c3                   	ret    
 804a58c:	41                   	inc    %ecx
 804a58d:	c5 43 0c             	lds    0xc(%ebx),%eax
 804a590:	04 04                	add    $0x4,%al
 804a592:	41                   	inc    %ecx
 804a593:	0b 20                	or     (%eax),%esp
 804a595:	00 00                	add    %al,(%eax)
 804a597:	00 8c 00 00 00 a6 e5 	add    %cl,-0x1a5a0000(%eax,%eax,1)
 804a59e:	ff                   	(bad)  
 804a59f:	ff 23                	jmp    *(%ebx)
 804a5a1:	00 00                	add    %al,(%eax)
 804a5a3:	00 00                	add    %al,(%eax)
 804a5a5:	43                   	inc    %ebx
 804a5a6:	0e                   	push   %cs
 804a5a7:	18 45 0e             	sbb    %al,0xe(%ebp)
 804a5aa:	1c 44                	sbb    $0x44,%al
 804a5ac:	0e                   	push   %cs
 804a5ad:	20 48 0e             	and    %cl,0xe(%eax)
 804a5b0:	10 47 0a             	adc    %al,0xa(%edi)
 804a5b3:	0e                   	push   %cs
 804a5b4:	04 41                	add    $0x41,%al
 804a5b6:	0b 00                	or     (%eax),%eax
 804a5b8:	34 00                	xor    $0x0,%al
 804a5ba:	00 00                	add    %al,(%eax)
 804a5bc:	b0 00                	mov    $0x0,%al
 804a5be:	00 00                	add    %al,(%eax)
 804a5c0:	a5                   	movsl  %ds:(%esi),%es:(%edi)
 804a5c1:	e5 ff                	in     $0xff,%eax
 804a5c3:	ff 6f 00             	ljmp   *0x0(%edi)
 804a5c6:	00 00                	add    %al,(%eax)
 804a5c8:	00 41 0e             	add    %al,0xe(%ecx)
 804a5cb:	08 86 02 41 0e 0c    	or     %al,0xc0e4102(%esi)
 804a5d1:	83 03 43             	addl   $0x43,(%ebx)
 804a5d4:	0e                   	push   %cs
 804a5d5:	38 51 0e             	cmp    %dl,0xe(%ecx)
 804a5d8:	3c 44                	cmp    $0x44,%al
 804a5da:	0e                   	push   %cs
 804a5db:	40                   	inc    %eax
 804a5dc:	48                   	dec    %eax
 804a5dd:	0e                   	push   %cs
 804a5de:	30 02                	xor    %al,(%edx)
 804a5e0:	45                   	inc    %ebp
 804a5e1:	0a 0e                	or     (%esi),%cl
 804a5e3:	0c 41                	or     $0x41,%al
 804a5e5:	c3                   	ret    
 804a5e6:	0e                   	push   %cs
 804a5e7:	08 41 c6             	or     %al,-0x3a(%ecx)
 804a5ea:	0e                   	push   %cs
 804a5eb:	04 41                	add    $0x41,%al
 804a5ed:	0b 00                	or     (%eax),%eax
 804a5ef:	00 28                	add    %ch,(%eax)
 804a5f1:	00 00                	add    %al,(%eax)
 804a5f3:	00 e8                	add    %ch,%al
 804a5f5:	00 00                	add    %al,(%eax)
 804a5f7:	00 dc                	add    %bl,%ah
 804a5f9:	e5 ff                	in     $0xff,%eax
 804a5fb:	ff                   	(bad)  
 804a5fc:	d9 00                	flds   (%eax)
 804a5fe:	00 00                	add    %al,(%eax)
 804a600:	00 43 0e             	add    %al,0xe(%ebx)
 804a603:	20 51 0e             	and    %dl,0xe(%ecx)
 804a606:	24 45                	and    $0x45,%al
 804a608:	0e                   	push   %cs
 804a609:	28 45 0e             	sub    %al,0xe(%ebp)
 804a60c:	2c 44                	sub    $0x44,%al
 804a60e:	0e                   	push   %cs
 804a60f:	30 48 0e             	xor    %cl,0xe(%eax)
 804a612:	20 02                	and    %al,(%edx)
 804a614:	73 0a                	jae    804a620 <__GNU_EH_FRAME_HDR+0x220>
 804a616:	0e                   	push   %cs
 804a617:	04 41                	add    $0x41,%al
 804a619:	0b 00                	or     (%eax),%eax
 804a61b:	00 48 00             	add    %cl,0x0(%eax)
 804a61e:	00 00                	add    %al,(%eax)
 804a620:	14 01                	adc    $0x1,%al
 804a622:	00 00                	add    %al,(%eax)
 804a624:	89 e6                	mov    %esp,%esi
 804a626:	ff                   	(bad)  
 804a627:	ff 5a 00             	lcall  *0x0(%edx)
 804a62a:	00 00                	add    %al,(%eax)
 804a62c:	00 41 0e             	add    %al,0xe(%ecx)
 804a62f:	08 86 02 41 0e 0c    	or     %al,0xc0e4102(%esi)
 804a635:	83 03 43             	addl   $0x43,(%ebx)
 804a638:	0e                   	push   %cs
 804a639:	10 68 0a             	adc    %ch,0xa(%eax)
 804a63c:	0e                   	push   %cs
 804a63d:	0c 41                	or     $0x41,%al
 804a63f:	c3                   	ret    
 804a640:	0e                   	push   %cs
 804a641:	08 41 c6             	or     %al,-0x3a(%ecx)
 804a644:	0e                   	push   %cs
 804a645:	04 41                	add    $0x41,%al
 804a647:	0b 43 0e             	or     0xe(%ebx),%eax
 804a64a:	14 44                	adc    $0x44,%al
 804a64c:	0e                   	push   %cs
 804a64d:	18 41 0e             	sbb    %al,0xe(%ecx)
 804a650:	1c 41                	sbb    $0x41,%al
 804a652:	0e                   	push   %cs
 804a653:	20 48 0e             	and    %cl,0xe(%eax)
 804a656:	10 47 0e             	adc    %al,0xe(%edi)
 804a659:	14 41                	adc    $0x41,%al
 804a65b:	0e                   	push   %cs
 804a65c:	18 44 0e 1c          	sbb    %al,0x1c(%esi,%ecx,1)
 804a660:	41                   	inc    %ecx
 804a661:	0e                   	push   %cs
 804a662:	20 48 0e             	and    %cl,0xe(%eax)
 804a665:	10 00                	adc    %al,(%eax)
 804a667:	00 34 00             	add    %dh,(%eax,%eax,1)
 804a66a:	00 00                	add    %al,(%eax)
 804a66c:	60                   	pusha  
 804a66d:	01 00                	add    %eax,(%eax)
 804a66f:	00 97 e6 ff ff 79    	add    %dl,0x79ffffe6(%edi)
 804a675:	00 00                	add    %al,(%eax)
 804a677:	00 00                	add    %al,(%eax)
 804a679:	43                   	inc    %ebx
 804a67a:	0e                   	push   %cs
 804a67b:	20 51 0e             	and    %dl,0xe(%ecx)
 804a67e:	24 45                	and    $0x45,%al
 804a680:	0e                   	push   %cs
 804a681:	28 45 0e             	sub    %al,0xe(%ebp)
 804a684:	2c 44                	sub    $0x44,%al
 804a686:	0e                   	push   %cs
 804a687:	30 48 0e             	xor    %cl,0xe(%eax)
 804a68a:	20 4d 0e             	and    %cl,0xe(%ebp)
 804a68d:	24 42                	and    $0x42,%al
 804a68f:	0e                   	push   %cs
 804a690:	28 42 0e             	sub    %al,0xe(%edx)
 804a693:	2c 44                	sub    $0x44,%al
 804a695:	0e                   	push   %cs
 804a696:	30 48 0e             	xor    %cl,0xe(%eax)
 804a699:	20 5a 0a             	and    %bl,0xa(%edx)
 804a69c:	0e                   	push   %cs
 804a69d:	04 41                	add    $0x41,%al
 804a69f:	0b 24 00             	or     (%eax,%eax,1),%esp
 804a6a2:	00 00                	add    %al,(%eax)
 804a6a4:	98                   	cwtl   
 804a6a5:	01 00                	add    %eax,(%eax)
 804a6a7:	00 d8                	add    %bl,%al
 804a6a9:	e6 ff                	out    %al,$0xff
 804a6ab:	ff 48 00             	decl   0x0(%eax)
 804a6ae:	00 00                	add    %al,(%eax)
 804a6b0:	00 41 0e             	add    %al,0xe(%ecx)
 804a6b3:	08 83 02 43 0e 1c    	or     %al,0x1c0e4302(%ebx)
 804a6b9:	45                   	inc    %ebp
 804a6ba:	0e                   	push   %cs
 804a6bb:	20 48 0e             	and    %cl,0xe(%eax)
 804a6be:	10 75 0e             	adc    %dh,0xe(%ebp)
 804a6c1:	08 41 c3             	or     %al,-0x3d(%ecx)
 804a6c4:	0e                   	push   %cs
 804a6c5:	04 00                	add    $0x0,%al
 804a6c7:	00 34 00             	add    %dh,(%eax,%eax,1)
 804a6ca:	00 00                	add    %al,(%eax)
 804a6cc:	c0 01 00             	rolb   $0x0,(%ecx)
 804a6cf:	00 f8                	add    %bh,%al
 804a6d1:	e6 ff                	out    %al,$0xff
 804a6d3:	ff 03                	incl   (%ebx)
 804a6d5:	01 00                	add    %eax,(%eax)
 804a6d7:	00 00                	add    %al,(%eax)
 804a6d9:	41                   	inc    %ecx
 804a6da:	0e                   	push   %cs
 804a6db:	08 86 02 41 0e 0c    	or     %al,0xc0e4102(%esi)
 804a6e1:	83 03 43             	addl   $0x43,(%ebx)
 804a6e4:	0e                   	push   %cs
 804a6e5:	58                   	pop    %eax
 804a6e6:	51                   	push   %ecx
 804a6e7:	0e                   	push   %cs
 804a6e8:	5c                   	pop    %esp
 804a6e9:	44                   	inc    %esp
 804a6ea:	0e                   	push   %cs
 804a6eb:	60                   	pusha  
 804a6ec:	48                   	dec    %eax
 804a6ed:	0e                   	push   %cs
 804a6ee:	50                   	push   %eax
 804a6ef:	02 d9                	add    %cl,%bl
 804a6f1:	0a 0e                	or     (%esi),%cl
 804a6f3:	0c 41                	or     $0x41,%al
 804a6f5:	c3                   	ret    
 804a6f6:	0e                   	push   %cs
 804a6f7:	08 41 c6             	or     %al,-0x3a(%ecx)
 804a6fa:	0e                   	push   %cs
 804a6fb:	04 41                	add    $0x41,%al
 804a6fd:	0b 00                	or     (%eax),%eax
 804a6ff:	00 38                	add    %bh,(%eax)
 804a701:	00 00                	add    %al,(%eax)
 804a703:	00 f8                	add    %bh,%al
 804a705:	01 00                	add    %eax,(%eax)
 804a707:	00 c3                	add    %al,%bl
 804a709:	e7 ff                	out    %eax,$0xff
 804a70b:	ff 51 00             	call   *0x0(%ecx)
 804a70e:	00 00                	add    %al,(%eax)
 804a710:	00 41 0e             	add    %al,0xe(%ecx)
 804a713:	08 83 02 43 0e 10    	or     %al,0x100e4302(%ebx)
 804a719:	5e                   	pop    %esi
 804a71a:	0e                   	push   %cs
 804a71b:	18 41 0e             	sbb    %al,0xe(%ecx)
 804a71e:	1c 43                	sbb    $0x43,%al
 804a720:	0e                   	push   %cs
 804a721:	20 48 0e             	and    %cl,0xe(%eax)
 804a724:	10 47 0a             	adc    %al,0xa(%edi)
 804a727:	0e                   	push   %cs
 804a728:	08 41 c3             	or     %al,-0x3d(%ecx)
 804a72b:	0e                   	push   %cs
 804a72c:	04 41                	add    $0x41,%al
 804a72e:	0b 43 0e             	or     0xe(%ebx),%eax
 804a731:	18 41 0e             	sbb    %al,0xe(%ecx)
 804a734:	1c 43                	sbb    $0x43,%al
 804a736:	0e                   	push   %cs
 804a737:	20 48 0e             	and    %cl,0xe(%eax)
 804a73a:	10 00                	adc    %al,(%eax)
 804a73c:	44                   	inc    %esp
 804a73d:	00 00                	add    %al,(%eax)
 804a73f:	00 34 02             	add    %dh,(%edx,%eax,1)
 804a742:	00 00                	add    %al,(%eax)
 804a744:	d8 e7                	fsub   %st(7),%st
 804a746:	ff                   	(bad)  
 804a747:	ff 5e 00             	lcall  *0x0(%esi)
 804a74a:	00 00                	add    %al,(%eax)
 804a74c:	00 41 0e             	add    %al,0xe(%ecx)
 804a74f:	08 83 02 43 0e 10    	or     %al,0x100e4302(%ebx)
 804a755:	48                   	dec    %eax
 804a756:	0e                   	push   %cs
 804a757:	14 42                	adc    $0x42,%al
 804a759:	0e                   	push   %cs
 804a75a:	18 42 0e             	sbb    %al,0xe(%edx)
 804a75d:	1c 41                	sbb    $0x41,%al
 804a75f:	0e                   	push   %cs
 804a760:	20 4d 0e             	and    %cl,0xe(%ebp)
 804a763:	10 4a 0e             	adc    %cl,0xe(%edx)
 804a766:	18 41 0e             	sbb    %al,0xe(%ecx)
 804a769:	1c 45                	sbb    $0x45,%al
 804a76b:	0e                   	push   %cs
 804a76c:	20 48 0e             	and    %cl,0xe(%eax)
 804a76f:	10 4d 0e             	adc    %cl,0xe(%ebp)
 804a772:	1c 45                	sbb    $0x45,%al
 804a774:	0e                   	push   %cs
 804a775:	20 4d 0e             	and    %cl,0xe(%ebp)
 804a778:	08 41 c3             	or     %al,-0x3d(%ecx)
 804a77b:	0e                   	push   %cs
 804a77c:	04 41                	add    $0x41,%al
 804a77e:	0e                   	push   %cs
 804a77f:	10 83 02 00 00 24    	adc    %al,0x24000002(%ebx)
 804a785:	00 00                	add    %al,(%eax)
 804a787:	00 7c 02 00          	add    %bh,0x0(%edx,%eax,1)
 804a78b:	00 ee                	add    %ch,%dh
 804a78d:	e7 ff                	out    %eax,$0xff
 804a78f:	ff 5a 00             	lcall  *0x0(%edx)
 804a792:	00 00                	add    %al,(%eax)
 804a794:	00 43 0e             	add    %al,0xe(%ebx)
 804a797:	1c 45                	sbb    $0x45,%al
 804a799:	0e                   	push   %cs
 804a79a:	20 54 0e 18          	and    %dl,0x18(%esi,%ecx,1)
 804a79e:	45                   	inc    %ebp
 804a79f:	0e                   	push   %cs
 804a7a0:	1c 42                	sbb    $0x42,%al
 804a7a2:	0e                   	push   %cs
 804a7a3:	20 48 0e             	and    %cl,0xe(%eax)
 804a7a6:	1c 46                	sbb    $0x46,%al
 804a7a8:	0e                   	push   %cs
 804a7a9:	20 00                	and    %al,(%eax)
 804a7ab:	00 1c 00             	add    %bl,(%eax,%eax,1)
 804a7ae:	00 00                	add    %al,(%eax)
 804a7b0:	a4                   	movsb  %ds:(%esi),%es:(%edi)
 804a7b1:	02 00                	add    (%eax),%al
 804a7b3:	00 20                	add    %ah,(%eax)
 804a7b5:	e8 ff ff 1f 00       	call   824a7b9 <_end+0x1fdd49>
 804a7ba:	00 00                	add    %al,(%eax)
 804a7bc:	00 43 0e             	add    %al,0xe(%ebx)
 804a7bf:	14 44                	adc    $0x44,%al
 804a7c1:	0e                   	push   %cs
 804a7c2:	18 45 0e             	sbb    %al,0xe(%ebp)
 804a7c5:	1c 42                	sbb    $0x42,%al
 804a7c7:	0e                   	push   %cs
 804a7c8:	20 00                	and    %al,(%eax)
 804a7ca:	00 00                	add    %al,(%eax)
 804a7cc:	10 00                	adc    %al,(%eax)
 804a7ce:	00 00                	add    %al,(%eax)
 804a7d0:	c4 02                	les    (%edx),%eax
 804a7d2:	00 00                	add    %al,(%eax)
 804a7d4:	1f                   	pop    %ds
 804a7d5:	e8 ff ff 1f 00       	call   824a7d9 <_end+0x1fdd69>
 804a7da:	00 00                	add    %al,(%eax)
 804a7dc:	00 00                	add    %al,(%eax)
 804a7de:	00 00                	add    %al,(%eax)
 804a7e0:	34 00                	xor    $0x0,%al
 804a7e2:	00 00                	add    %al,(%eax)
 804a7e4:	d8 02                	fadds  (%edx)
 804a7e6:	00 00                	add    %al,(%eax)
 804a7e8:	2a e8                	sub    %al,%ch
 804a7ea:	ff                   	(bad)  
 804a7eb:	ff 65 00             	jmp    *0x0(%ebp)
 804a7ee:	00 00                	add    %al,(%eax)
 804a7f0:	00 41 0e             	add    %al,0xe(%ecx)
 804a7f3:	08 87 02 41 0e 0c    	or     %al,0xc0e4102(%edi)
 804a7f9:	86 03                	xchg   %al,(%ebx)
 804a7fb:	41                   	inc    %ecx
 804a7fc:	0e                   	push   %cs
 804a7fd:	10 83 04 49 0e 14    	adc    %al,0x140e4904(%ebx)
 804a803:	52                   	push   %edx
 804a804:	0e                   	push   %cs
 804a805:	10 4c 0a c3          	adc    %cl,-0x3d(%edx,%ecx,1)
 804a809:	0e                   	push   %cs
 804a80a:	0c 41                	or     $0x41,%al
 804a80c:	c6                   	(bad)  
 804a80d:	0e                   	push   %cs
 804a80e:	08 41 c7             	or     %al,-0x39(%ecx)
 804a811:	0e                   	push   %cs
 804a812:	04 41                	add    $0x41,%al
 804a814:	0b 00                	or     (%eax),%eax
 804a816:	00 00                	add    %al,(%eax)
 804a818:	1c 00                	sbb    $0x0,%al
 804a81a:	00 00                	add    %al,(%eax)
 804a81c:	10 03                	adc    %al,(%ebx)
 804a81e:	00 00                	add    %al,(%eax)
 804a820:	57                   	push   %edi
 804a821:	e8 ff ff 13 00       	call   818a825 <_end+0x13ddb5>
 804a826:	00 00                	add    %al,(%eax)
 804a828:	00 43 0e             	add    %al,0xe(%ebx)
 804a82b:	18 45 0e             	sbb    %al,0xe(%ebp)
 804a82e:	1c 42                	sbb    $0x42,%al
 804a830:	0e                   	push   %cs
 804a831:	20 48 0e             	and    %cl,0xe(%eax)
 804a834:	04 00                	add    $0x0,%al
 804a836:	00 00                	add    %al,(%eax)
 804a838:	10 00                	adc    %al,(%eax)
 804a83a:	00 00                	add    %al,(%eax)
 804a83c:	30 03                	xor    %al,(%ebx)
 804a83e:	00 00                	add    %al,(%eax)
 804a840:	4a                   	dec    %edx
 804a841:	e8 ff ff 02 00       	call   807a845 <_end+0x2ddd5>
 804a846:	00 00                	add    %al,(%eax)
 804a848:	00 00                	add    %al,(%eax)
 804a84a:	00 00                	add    %al,(%eax)
 804a84c:	28 00                	sub    %al,(%eax)
 804a84e:	00 00                	add    %al,(%eax)
 804a850:	44                   	inc    %esp
 804a851:	03 00                	add    (%eax),%eax
 804a853:	00 38                	add    %bh,(%eax)
 804a855:	e8 ff ff 36 00       	call   83ba859 <_end+0x36dde9>
 804a85a:	00 00                	add    %al,(%eax)
 804a85c:	00 41 0e             	add    %al,0xe(%ecx)
 804a85f:	08 86 02 41 0e 0c    	or     %al,0xc0e4102(%esi)
 804a865:	83 03 43             	addl   $0x43,(%ebx)
 804a868:	0e                   	push   %cs
 804a869:	10 6e 0e             	adc    %ch,0xe(%esi)
 804a86c:	0c 41                	or     $0x41,%al
 804a86e:	c3                   	ret    
 804a86f:	0e                   	push   %cs
 804a870:	08 41 c6             	or     %al,-0x3a(%ecx)
 804a873:	0e                   	push   %cs
 804a874:	04 00                	add    $0x0,%al
 804a876:	00 00                	add    %al,(%eax)
 804a878:	34 00                	xor    $0x0,%al
 804a87a:	00 00                	add    %al,(%eax)
 804a87c:	70 03                	jo     804a881 <__GNU_EH_FRAME_HDR+0x481>
 804a87e:	00 00                	add    %al,(%eax)
 804a880:	42                   	inc    %edx
 804a881:	e8 ff ff 45 00       	call   84aa885 <_end+0x45de15>
 804a886:	00 00                	add    %al,(%eax)
 804a888:	00 41 0e             	add    %al,0xe(%ecx)
 804a88b:	08 83 02 43 0e 10    	or     %al,0x100e4302(%ebx)
 804a891:	43                   	inc    %ebx
 804a892:	0e                   	push   %cs
 804a893:	14 46                	adc    $0x46,%al
 804a895:	0e                   	push   %cs
 804a896:	18 42 0e             	sbb    %al,0xe(%edx)
 804a899:	1c 51                	sbb    $0x51,%al
 804a89b:	0e                   	push   %cs
 804a89c:	20 4a 0e             	and    %cl,0xe(%edx)
 804a89f:	10 47 0e             	adc    %al,0xe(%edi)
 804a8a2:	1c 41                	sbb    $0x41,%al
 804a8a4:	0e                   	push   %cs
 804a8a5:	20 48 0e             	and    %cl,0xe(%eax)
 804a8a8:	10 49 0e             	adc    %cl,0xe(%ecx)
 804a8ab:	08 41 c3             	or     %al,-0x3d(%ecx)
 804a8ae:	0e                   	push   %cs
 804a8af:	04 14                	add    $0x14,%al
 804a8b1:	00 00                	add    %al,(%eax)
 804a8b3:	00 a8 03 00 00 4f    	add    %ch,0x4f000003(%eax)
 804a8b9:	e8 ff ff 25 00       	call   82aa8bd <_end+0x25de4d>
 804a8be:	00 00                	add    %al,(%eax)
 804a8c0:	00 43 0e             	add    %al,0xe(%ebx)
 804a8c3:	1c 45                	sbb    $0x45,%al
 804a8c5:	0e                   	push   %cs
 804a8c6:	20 00                	and    %al,(%eax)
 804a8c8:	34 00                	xor    $0x0,%al
 804a8ca:	00 00                	add    %al,(%eax)
 804a8cc:	c0 03 00             	rolb   $0x0,(%ebx)
 804a8cf:	00 5c e8 ff          	add    %bl,-0x1(%eax,%ebp,8)
 804a8d3:	ff                   	(bad)  
 804a8d4:	3b 00                	cmp    (%eax),%eax
 804a8d6:	00 00                	add    %al,(%eax)
 804a8d8:	00 43 0e             	add    %al,0xe(%ebx)
 804a8db:	10 48 0e             	adc    %cl,0xe(%eax)
 804a8de:	14 44                	adc    $0x44,%al
 804a8e0:	0e                   	push   %cs
 804a8e1:	18 44 0e 1c          	sbb    %al,0x1c(%esi,%ecx,1)
 804a8e5:	44                   	inc    %esp
 804a8e6:	0e                   	push   %cs
 804a8e7:	20 44 0e 24          	and    %al,0x24(%esi,%ecx,1)
 804a8eb:	41                   	inc    %ecx
 804a8ec:	0e                   	push   %cs
 804a8ed:	28 45 0e             	sub    %al,0xe(%ebp)
 804a8f0:	2c 44                	sub    $0x44,%al
 804a8f2:	0e                   	push   %cs
 804a8f3:	30 48 0e             	xor    %cl,0xe(%eax)
 804a8f6:	10 48 0a             	adc    %cl,0xa(%eax)
 804a8f9:	0e                   	push   %cs
 804a8fa:	04 41                	add    $0x41,%al
 804a8fc:	0b 00                	or     (%eax),%eax
 804a8fe:	00 00                	add    %al,(%eax)
 804a900:	58                   	pop    %eax
 804a901:	00 00                	add    %al,(%eax)
 804a903:	00 f8                	add    %bh,%al
 804a905:	03 00                	add    (%eax),%eax
 804a907:	00 5f e8             	add    %bl,-0x18(%edi)
 804a90a:	ff                   	(bad)  
 804a90b:	ff                   	(bad)  
 804a90c:	ff 00                	incl   (%eax)
 804a90e:	00 00                	add    %al,(%eax)
 804a910:	00 41 0e             	add    %al,0xe(%ecx)
 804a913:	08 87 02 41 0e 0c    	or     %al,0xc0e4102(%edi)
 804a919:	86 03                	xchg   %al,(%ebx)
 804a91b:	41                   	inc    %ecx
 804a91c:	0e                   	push   %cs
 804a91d:	10 83 04 02 51 0a    	adc    %al,0xa510204(%ebx)
 804a923:	c3                   	ret    
 804a924:	0e                   	push   %cs
 804a925:	0c 41                	or     $0x41,%al
 804a927:	c6                   	(bad)  
 804a928:	0e                   	push   %cs
 804a929:	08 41 c7             	or     %al,-0x39(%ecx)
 804a92c:	0e                   	push   %cs
 804a92d:	04 41                	add    $0x41,%al
 804a92f:	0b 50 0a             	or     0xa(%eax),%edx
 804a932:	0e                   	push   %cs
 804a933:	1c 45                	sbb    $0x45,%al
 804a935:	0e                   	push   %cs
 804a936:	20 48 0e             	and    %cl,0xe(%eax)
 804a939:	10 5a 0e             	adc    %bl,0xe(%edx)
 804a93c:	1c 45                	sbb    $0x45,%al
 804a93e:	0e                   	push   %cs
 804a93f:	20 51 0b             	and    %dl,0xb(%ecx)
 804a942:	43                   	inc    %ebx
 804a943:	0a 0e                	or     (%esi),%cl
 804a945:	1c 45                	sbb    $0x45,%al
 804a947:	0e                   	push   %cs
 804a948:	20 51 0b             	and    %dl,0xb(%ecx)
 804a94b:	43                   	inc    %ebx
 804a94c:	0a 0e                	or     (%esi),%cl
 804a94e:	1c 42                	sbb    $0x42,%al
 804a950:	0e                   	push   %cs
 804a951:	20 45 0b             	and    %al,0xb(%ebp)
 804a954:	43                   	inc    %ebx
 804a955:	0e                   	push   %cs
 804a956:	1c 45                	sbb    $0x45,%al
 804a958:	0e                   	push   %cs
 804a959:	20 00                	and    %al,(%eax)
 804a95b:	00 54 00 00          	add    %dl,0x0(%eax,%eax,1)
 804a95f:	00 54 04 00          	add    %dl,0x0(%esp,%eax,1)
 804a963:	00 02                	add    %al,(%edx)
 804a965:	e9 ff ff a5 00       	jmp    8aaa969 <_end+0xa5def9>
 804a96a:	00 00                	add    %al,(%eax)
 804a96c:	00 43 0e             	add    %al,0xe(%ebx)
 804a96f:	70 65                	jo     804a9d6 <__GNU_EH_FRAME_HDR+0x5d6>
 804a971:	0a 0e                	or     (%esi),%cl
 804a973:	04 41                	add    $0x41,%al
 804a975:	0b 43 0e             	or     0xe(%ebx),%eax
 804a978:	7c 45                	jl     804a9bf <__GNU_EH_FRAME_HDR+0x5bf>
 804a97a:	0e                   	push   %cs
 804a97b:	80 01 45             	addb   $0x45,(%ecx)
 804a97e:	0e                   	push   %cs
 804a97f:	84 01                	test   %al,(%ecx)
 804a981:	45                   	inc    %ebp
 804a982:	0e                   	push   %cs
 804a983:	88 01                	mov    %al,(%ecx)
 804a985:	45                   	inc    %ebp
 804a986:	0e                   	push   %cs
 804a987:	8c 01                	mov    %es,(%ecx)
 804a989:	45                   	inc    %ebp
 804a98a:	0e                   	push   %cs
 804a98b:	90                   	nop
 804a98c:	01 48 0e             	add    %ecx,0xe(%eax)
 804a98f:	70 48                	jo     804a9d9 <__GNU_EH_FRAME_HDR+0x5d9>
 804a991:	0e                   	push   %cs
 804a992:	7c 45                	jl     804a9d9 <__GNU_EH_FRAME_HDR+0x5d9>
 804a994:	0e                   	push   %cs
 804a995:	80 01 48             	addb   $0x48,(%ecx)
 804a998:	0e                   	push   %cs
 804a999:	70 45                	jo     804a9e0 <__GNU_EH_FRAME_HDR+0x5e0>
 804a99b:	0e                   	push   %cs
 804a99c:	78 45                	js     804a9e3 <__GNU_EH_FRAME_HDR+0x5e3>
 804a99e:	0e                   	push   %cs
 804a99f:	7c 45                	jl     804a9e6 <__GNU_EH_FRAME_HDR+0x5e6>
 804a9a1:	0e                   	push   %cs
 804a9a2:	80 01 48             	addb   $0x48,(%ecx)
 804a9a5:	0e                   	push   %cs
 804a9a6:	70 47                	jo     804a9ef <__GNU_EH_FRAME_HDR+0x5ef>
 804a9a8:	0e                   	push   %cs
 804a9a9:	7c 45                	jl     804a9f0 <__GNU_EH_FRAME_HDR+0x5f0>
 804a9ab:	0e                   	push   %cs
 804a9ac:	80 01 59             	addb   $0x59,(%ecx)
 804a9af:	0e                   	push   %cs
 804a9b0:	70 00                	jo     804a9b2 <__GNU_EH_FRAME_HDR+0x5b2>
 804a9b2:	00 00                	add    %al,(%eax)
 804a9b4:	1c 00                	sbb    $0x0,%al
 804a9b6:	00 00                	add    %al,(%eax)
 804a9b8:	ac                   	lods   %ds:(%esi),%al
 804a9b9:	04 00                	add    $0x0,%al
 804a9bb:	00 4f e9             	add    %cl,-0x17(%edi)
 804a9be:	ff                   	(bad)  
 804a9bf:	ff 23                	jmp    *(%ebx)
 804a9c1:	00 00                	add    %al,(%eax)
 804a9c3:	00 00                	add    %al,(%eax)
 804a9c5:	43                   	inc    %ebx
 804a9c6:	0e                   	push   %cs
 804a9c7:	10 42 0e             	adc    %al,0xe(%edx)
 804a9ca:	14 45                	adc    $0x45,%al
 804a9cc:	0e                   	push   %cs
 804a9cd:	18 42 0e             	sbb    %al,0xe(%edx)
 804a9d0:	1c 46                	sbb    $0x46,%al
 804a9d2:	0e                   	push   %cs
 804a9d3:	20 4c 00 00          	and    %cl,0x0(%eax,%eax,1)
 804a9d7:	00 cc                	add    %cl,%ah
 804a9d9:	04 00                	add    $0x0,%al
 804a9db:	00 52 e9             	add    %dl,-0x17(%edx)
 804a9de:	ff                   	(bad)  
 804a9df:	ff b1 00 00 00 00    	pushl  0x0(%ecx)
 804a9e5:	41                   	inc    %ecx
 804a9e6:	0e                   	push   %cs
 804a9e7:	08 85 02 41 0e 0c    	or     %al,0xc0e4102(%ebp)
 804a9ed:	87 03                	xchg   %eax,(%ebx)
 804a9ef:	41                   	inc    %ecx
 804a9f0:	0e                   	push   %cs
 804a9f1:	10 86 04 41 0e 14    	adc    %al,0x140e4104(%esi)
 804a9f7:	83 05 43 0e 30 6b 0e 	addl   $0xe,0x6b300e43
 804a9fe:	34 45                	xor    $0x45,%al
 804aa00:	0e                   	push   %cs
 804aa01:	38 41 0e             	cmp    %al,0xe(%ecx)
 804aa04:	3c 42                	cmp    $0x42,%al
 804aa06:	0e                   	push   %cs
 804aa07:	40                   	inc    %eax
 804aa08:	4b                   	dec    %ebx
 804aa09:	0e                   	push   %cs
 804aa0a:	30 7b 0a             	xor    %bh,0xa(%ebx)
 804aa0d:	0e                   	push   %cs
 804aa0e:	14 41                	adc    $0x41,%al
 804aa10:	c3                   	ret    
 804aa11:	0e                   	push   %cs
 804aa12:	10 41 c6             	adc    %al,-0x3a(%ecx)
 804aa15:	0e                   	push   %cs
 804aa16:	0c 41                	or     $0x41,%al
 804aa18:	c7                   	(bad)  
 804aa19:	0e                   	push   %cs
 804aa1a:	08 41 c5             	or     %al,-0x3b(%ecx)
 804aa1d:	0e                   	push   %cs
 804aa1e:	04 41                	add    $0x41,%al
 804aa20:	0b 00                	or     (%eax),%eax
 804aa22:	00 00                	add    %al,(%eax)
 804aa24:	e4 01                	in     $0x1,%al
 804aa26:	00 00                	add    %al,(%eax)
 804aa28:	1c 05                	sbb    $0x5,%al
 804aa2a:	00 00                	add    %al,(%eax)
 804aa2c:	b3 e9                	mov    $0xe9,%bl
 804aa2e:	ff                   	(bad)  
 804aa2f:	ff                   	(bad)  
 804aa30:	da 07                	fiaddl (%edi)
 804aa32:	00 00                	add    %al,(%eax)
 804aa34:	00 41 0e             	add    %al,0xe(%ecx)
 804aa37:	08 85 02 41 0e 0c    	or     %al,0xc0e4102(%ebp)
 804aa3d:	87 03                	xchg   %eax,(%ebx)
 804aa3f:	41                   	inc    %ecx
 804aa40:	0e                   	push   %cs
 804aa41:	10 86 04 41 0e 14    	adc    %al,0x140e4104(%esi)
 804aa47:	83 05 46 0e f4 c0 02 	addl   $0x2,0xc0f40e46
 804aa4e:	02 53 0e             	add    0xe(%ebx),%dl
 804aa51:	f8                   	clc    
 804aa52:	c0 02 42             	rolb   $0x42,(%edx)
 804aa55:	0e                   	push   %cs
 804aa56:	fc                   	cld    
 804aa57:	c0 02 42             	rolb   $0x42,(%edx)
 804aa5a:	0e                   	push   %cs
 804aa5b:	80 c1 02             	add    $0x2,%cl
 804aa5e:	48                   	dec    %eax
 804aa5f:	0e                   	push   %cs
 804aa60:	f0 c0 02 4d          	lock rolb $0x4d,(%edx)
 804aa64:	0e                   	push   %cs
 804aa65:	fc                   	cld    
 804aa66:	c0 02 41             	rolb   $0x41,(%edx)
 804aa69:	0e                   	push   %cs
 804aa6a:	80 c1 02             	add    $0x2,%cl
 804aa6d:	48                   	dec    %eax
 804aa6e:	0e                   	push   %cs
 804aa6f:	f0 c0 02 75          	lock rolb $0x75,(%edx)
 804aa73:	0e                   	push   %cs
 804aa74:	f4                   	hlt    
 804aa75:	c0 02 43             	rolb   $0x43,(%edx)
 804aa78:	0e                   	push   %cs
 804aa79:	f8                   	clc    
 804aa7a:	c0 02 45             	rolb   $0x45,(%edx)
 804aa7d:	0e                   	push   %cs
 804aa7e:	fc                   	cld    
 804aa7f:	c0 02 45             	rolb   $0x45,(%edx)
 804aa82:	0e                   	push   %cs
 804aa83:	80 c1 02             	add    $0x2,%cl
 804aa86:	59                   	pop    %ecx
 804aa87:	0e                   	push   %cs
 804aa88:	f4                   	hlt    
 804aa89:	c0 02 42             	rolb   $0x42,(%edx)
 804aa8c:	0e                   	push   %cs
 804aa8d:	f8                   	clc    
 804aa8e:	c0 02 41             	rolb   $0x41,(%edx)
 804aa91:	0e                   	push   %cs
 804aa92:	fc                   	cld    
 804aa93:	c0 02 41             	rolb   $0x41,(%edx)
 804aa96:	0e                   	push   %cs
 804aa97:	80 c1 02             	add    $0x2,%cl
 804aa9a:	48                   	dec    %eax
 804aa9b:	0e                   	push   %cs
 804aa9c:	f0 c0 02 03          	lock rolb $0x3,(%edx)
 804aaa0:	3e 01 0e             	add    %ecx,%ds:(%esi)
 804aaa3:	fc                   	cld    
 804aaa4:	c0 02 41             	rolb   $0x41,(%edx)
 804aaa7:	0e                   	push   %cs
 804aaa8:	80 c1 02             	add    $0x2,%cl
 804aaab:	48                   	dec    %eax
 804aaac:	0e                   	push   %cs
 804aaad:	f0 c0 02 02          	lock rolb $0x2,(%edx)
 804aab1:	59                   	pop    %ecx
 804aab2:	0e                   	push   %cs
 804aab3:	fc                   	cld    
 804aab4:	c0 02 41             	rolb   $0x41,(%edx)
 804aab7:	0e                   	push   %cs
 804aab8:	80 c1 02             	add    $0x2,%cl
 804aabb:	48                   	dec    %eax
 804aabc:	0e                   	push   %cs
 804aabd:	f0 c0 02 02          	lock rolb $0x2,(%edx)
 804aac1:	72 0e                	jb     804aad1 <__GNU_EH_FRAME_HDR+0x6d1>
 804aac3:	fc                   	cld    
 804aac4:	c0 02 41             	rolb   $0x41,(%edx)
 804aac7:	0e                   	push   %cs
 804aac8:	80 c1 02             	add    $0x2,%cl
 804aacb:	48                   	dec    %eax
 804aacc:	0e                   	push   %cs
 804aacd:	f0 c0 02 02          	lock rolb $0x2,(%edx)
 804aad1:	65 0e                	gs push %cs
 804aad3:	fc                   	cld    
 804aad4:	c0 02 44             	rolb   $0x44,(%edx)
 804aad7:	0e                   	push   %cs
 804aad8:	80 c1 02             	add    $0x2,%cl
 804aadb:	45                   	inc    %ebp
 804aadc:	0e                   	push   %cs
 804aadd:	84 c1                	test   %al,%cl
 804aadf:	02 42 0e             	add    0xe(%edx),%al
 804aae2:	88 c1                	mov    %al,%cl
 804aae4:	02 42 0e             	add    0xe(%edx),%al
 804aae7:	8c c1                	mov    %es,%ecx
 804aae9:	02 48 0e             	add    0xe(%eax),%cl
 804aaec:	90                   	nop
 804aaed:	c1 02 68             	roll   $0x68,(%edx)
 804aaf0:	0e                   	push   %cs
 804aaf1:	f0 c0 02 5c          	lock rolb $0x5c,(%edx)
 804aaf5:	0e                   	push   %cs
 804aaf6:	f4                   	hlt    
 804aaf7:	c0 02 41             	rolb   $0x41,(%edx)
 804aafa:	0e                   	push   %cs
 804aafb:	f8                   	clc    
 804aafc:	c0 02 41             	rolb   $0x41,(%edx)
 804aaff:	0e                   	push   %cs
 804ab00:	fc                   	cld    
 804ab01:	c0 02 41             	rolb   $0x41,(%edx)
 804ab04:	0e                   	push   %cs
 804ab05:	80 c1 02             	add    $0x2,%cl
 804ab08:	48                   	dec    %eax
 804ab09:	0e                   	push   %cs
 804ab0a:	f0 c0 02 02          	lock rolb $0x2,(%edx)
 804ab0e:	55                   	push   %ebp
 804ab0f:	0e                   	push   %cs
 804ab10:	fc                   	cld    
 804ab11:	c0 02 48             	rolb   $0x48,(%edx)
 804ab14:	0e                   	push   %cs
 804ab15:	80 c1 02             	add    $0x2,%cl
 804ab18:	45                   	inc    %ebp
 804ab19:	0e                   	push   %cs
 804ab1a:	84 c1                	test   %al,%cl
 804ab1c:	02 48 0e             	add    0xe(%eax),%cl
 804ab1f:	88 c1                	mov    %al,%cl
 804ab21:	02 45 0e             	add    0xe(%ebp),%al
 804ab24:	8c c1                	mov    %es,%ecx
 804ab26:	02 48 0e             	add    0xe(%eax),%cl
 804ab29:	90                   	nop
 804ab2a:	c1 02 4c             	roll   $0x4c,(%edx)
 804ab2d:	0e                   	push   %cs
 804ab2e:	f0 c0 02 4e          	lock rolb $0x4e,(%edx)
 804ab32:	0e                   	push   %cs
 804ab33:	f8                   	clc    
 804ab34:	c0 02 48             	rolb   $0x48,(%edx)
 804ab37:	0e                   	push   %cs
 804ab38:	fc                   	cld    
 804ab39:	c0 02 41             	rolb   $0x41,(%edx)
 804ab3c:	0e                   	push   %cs
 804ab3d:	80 c1 02             	add    $0x2,%cl
 804ab40:	45                   	inc    %ebp
 804ab41:	0e                   	push   %cs
 804ab42:	84 c1                	test   %al,%cl
 804ab44:	02 42 0e             	add    0xe(%edx),%al
 804ab47:	88 c1                	mov    %al,%cl
 804ab49:	02 42 0e             	add    0xe(%edx),%al
 804ab4c:	8c c1                	mov    %es,%ecx
 804ab4e:	02 44 0e 90          	add    -0x70(%esi,%ecx,1),%al
 804ab52:	c1 02 48             	roll   $0x48,(%edx)
 804ab55:	0e                   	push   %cs
 804ab56:	fc                   	cld    
 804ab57:	c0 02 41             	rolb   $0x41,(%edx)
 804ab5a:	0e                   	push   %cs
 804ab5b:	80 c1 02             	add    $0x2,%cl
 804ab5e:	48                   	dec    %eax
 804ab5f:	0e                   	push   %cs
 804ab60:	f0 c0 02 02          	lock rolb $0x2,(%edx)
 804ab64:	5d                   	pop    %ebp
 804ab65:	0e                   	push   %cs
 804ab66:	fc                   	cld    
 804ab67:	c0 02 41             	rolb   $0x41,(%edx)
 804ab6a:	0e                   	push   %cs
 804ab6b:	80 c1 02             	add    $0x2,%cl
 804ab6e:	48                   	dec    %eax
 804ab6f:	0e                   	push   %cs
 804ab70:	f0 c0 02 02          	lock rolb $0x2,(%edx)
 804ab74:	71 0e                	jno    804ab84 <__GNU_EH_FRAME_HDR+0x784>
 804ab76:	fc                   	cld    
 804ab77:	c0 02 41             	rolb   $0x41,(%edx)
 804ab7a:	0e                   	push   %cs
 804ab7b:	80 c1 02             	add    $0x2,%cl
 804ab7e:	48                   	dec    %eax
 804ab7f:	0e                   	push   %cs
 804ab80:	f0 c0 02 02          	lock rolb $0x2,(%edx)
 804ab84:	68 0e fc c0 02       	push   $0x2c0fc0e
 804ab89:	41                   	inc    %ecx
 804ab8a:	0e                   	push   %cs
 804ab8b:	80 c1 02             	add    $0x2,%cl
 804ab8e:	48                   	dec    %eax
 804ab8f:	0e                   	push   %cs
 804ab90:	f0 c0 02 02          	lock rolb $0x2,(%edx)
 804ab94:	75 0e                	jne    804aba4 <__GNU_EH_FRAME_HDR+0x7a4>
 804ab96:	f8                   	clc    
 804ab97:	c0 02 48             	rolb   $0x48,(%edx)
 804ab9a:	0e                   	push   %cs
 804ab9b:	fc                   	cld    
 804ab9c:	c0 02 45             	rolb   $0x45,(%edx)
 804ab9f:	0e                   	push   %cs
 804aba0:	80 c1 02             	add    $0x2,%cl
 804aba3:	58                   	pop    %eax
 804aba4:	0e                   	push   %cs
 804aba5:	f0 c0 02 7b          	lock rolb $0x7b,(%edx)
 804aba9:	0a 0e                	or     (%esi),%cl
 804abab:	14 41                	adc    $0x41,%al
 804abad:	c3                   	ret    
 804abae:	0e                   	push   %cs
 804abaf:	10 41 c6             	adc    %al,-0x3a(%ecx)
 804abb2:	0e                   	push   %cs
 804abb3:	0c 41                	or     $0x41,%al
 804abb5:	c7                   	(bad)  
 804abb6:	0e                   	push   %cs
 804abb7:	08 41 c5             	or     %al,-0x3b(%ecx)
 804abba:	0e                   	push   %cs
 804abbb:	04 41                	add    $0x41,%al
 804abbd:	0b 02                	or     (%edx),%eax
 804abbf:	68 0e fc c0 02       	push   $0x2c0fc0e
 804abc4:	41                   	inc    %ecx
 804abc5:	0e                   	push   %cs
 804abc6:	80 c1 02             	add    $0x2,%cl
 804abc9:	48                   	dec    %eax
 804abca:	0e                   	push   %cs
 804abcb:	f0 c0 02 7b          	lock rolb $0x7b,(%edx)
 804abcf:	0e                   	push   %cs
 804abd0:	fc                   	cld    
 804abd1:	c0 02 41             	rolb   $0x41,(%edx)
 804abd4:	0e                   	push   %cs
 804abd5:	80 c1 02             	add    $0x2,%cl
 804abd8:	48                   	dec    %eax
 804abd9:	0e                   	push   %cs
 804abda:	f0 c0 02 52          	lock rolb $0x52,(%edx)
 804abde:	0e                   	push   %cs
 804abdf:	f4                   	hlt    
 804abe0:	c0 02 44             	rolb   $0x44,(%edx)
 804abe3:	0e                   	push   %cs
 804abe4:	f8                   	clc    
 804abe5:	c0 02 44             	rolb   $0x44,(%edx)
 804abe8:	0e                   	push   %cs
 804abe9:	fc                   	cld    
 804abea:	c0 02 44             	rolb   $0x44,(%edx)
 804abed:	0e                   	push   %cs
 804abee:	80 c1 02             	add    $0x2,%cl
 804abf1:	45                   	inc    %ebp
 804abf2:	0e                   	push   %cs
 804abf3:	84 c1                	test   %al,%cl
 804abf5:	02 45 0e             	add    0xe(%ebp),%al
 804abf8:	88 c1                	mov    %al,%cl
 804abfa:	02 42 0e             	add    0xe(%edx),%al
 804abfd:	8c c1                	mov    %es,%ecx
 804abff:	02 48 0e             	add    0xe(%eax),%cl
 804ac02:	90                   	nop
 804ac03:	c1 02 5d             	roll   $0x5d,(%edx)
 804ac06:	0e                   	push   %cs
 804ac07:	f0 c0 02 00          	lock rolb $0x0,(%edx)
 804ac0b:	00 28                	add    %ch,(%eax)
 804ac0d:	00 00                	add    %al,(%eax)
 804ac0f:	00 04 07             	add    %al,(%edi,%eax,1)
 804ac12:	00 00                	add    %al,(%eax)
 804ac14:	a5                   	movsl  %ds:(%esi),%es:(%edi)
 804ac15:	ef                   	out    %eax,(%dx)
 804ac16:	ff                   	(bad)  
 804ac17:	ff 35 00 00 00 00    	pushl  0x0
 804ac1d:	41                   	inc    %ecx
 804ac1e:	0e                   	push   %cs
 804ac1f:	08 83 02 43 0e 10    	or     %al,0x100e4302(%ebx)
 804ac25:	4b                   	dec    %ebx
 804ac26:	0e                   	push   %cs
 804ac27:	18 45 0e             	sbb    %al,0xe(%ebp)
 804ac2a:	1c 42                	sbb    $0x42,%al
 804ac2c:	0e                   	push   %cs
 804ac2d:	20 5a 0e             	and    %bl,0xe(%edx)
 804ac30:	10 43 0e             	adc    %al,0xe(%ebx)
 804ac33:	08 41 c3             	or     %al,-0x3d(%ecx)
 804ac36:	0e                   	push   %cs
 804ac37:	04 ac                	add    $0xac,%al
 804ac39:	00 00                	add    %al,(%eax)
 804ac3b:	00 30                	add    %dh,(%eax)
 804ac3d:	07                   	pop    %es
 804ac3e:	00 00                	add    %al,(%eax)
 804ac40:	ae                   	scas   %es:(%edi),%al
 804ac41:	ef                   	out    %eax,(%dx)
 804ac42:	ff                   	(bad)  
 804ac43:	ff e2                	jmp    *%edx
 804ac45:	01 00                	add    %eax,(%eax)
 804ac47:	00 00                	add    %al,(%eax)
 804ac49:	41                   	inc    %ecx
 804ac4a:	0e                   	push   %cs
 804ac4b:	08 87 02 41 0e 0c    	or     %al,0xc0e4102(%edi)
 804ac51:	86 03                	xchg   %al,(%ebx)
 804ac53:	41                   	inc    %ecx
 804ac54:	0e                   	push   %cs
 804ac55:	10 83 04 43 0e 38    	adc    %al,0x380e4304(%ebx)
 804ac5b:	52                   	push   %edx
 804ac5c:	0e                   	push   %cs
 804ac5d:	3c 42                	cmp    $0x42,%al
 804ac5f:	0e                   	push   %cs
 804ac60:	40                   	inc    %eax
 804ac61:	48                   	dec    %eax
 804ac62:	0e                   	push   %cs
 804ac63:	38 42 0e             	cmp    %al,0xe(%edx)
 804ac66:	3c 42                	cmp    $0x42,%al
 804ac68:	0e                   	push   %cs
 804ac69:	40                   	inc    %eax
 804ac6a:	48                   	dec    %eax
 804ac6b:	0e                   	push   %cs
 804ac6c:	38 42 0e             	cmp    %al,0xe(%edx)
 804ac6f:	3c 42                	cmp    $0x42,%al
 804ac71:	0e                   	push   %cs
 804ac72:	40                   	inc    %eax
 804ac73:	48                   	dec    %eax
 804ac74:	0e                   	push   %cs
 804ac75:	34 42                	xor    $0x42,%al
 804ac77:	0e                   	push   %cs
 804ac78:	38 42 0e             	cmp    %al,0xe(%edx)
 804ac7b:	3c 42                	cmp    $0x42,%al
 804ac7d:	0e                   	push   %cs
 804ac7e:	40                   	inc    %eax
 804ac7f:	48                   	dec    %eax
 804ac80:	0e                   	push   %cs
 804ac81:	30 4d 0e             	xor    %cl,0xe(%ebp)
 804ac84:	3c 45                	cmp    $0x45,%al
 804ac86:	0e                   	push   %cs
 804ac87:	40                   	inc    %eax
 804ac88:	48                   	dec    %eax
 804ac89:	0e                   	push   %cs
 804ac8a:	30 75 0e             	xor    %dh,0xe(%ebp)
 804ac8d:	34 43                	xor    $0x43,%al
 804ac8f:	0e                   	push   %cs
 804ac90:	38 45 0e             	cmp    %al,0xe(%ebp)
 804ac93:	3c 45                	cmp    $0x45,%al
 804ac95:	0e                   	push   %cs
 804ac96:	40                   	inc    %eax
 804ac97:	4f                   	dec    %edi
 804ac98:	0e                   	push   %cs
 804ac99:	34 42                	xor    $0x42,%al
 804ac9b:	0e                   	push   %cs
 804ac9c:	38 41 0e             	cmp    %al,0xe(%ecx)
 804ac9f:	3c 41                	cmp    $0x41,%al
 804aca1:	0e                   	push   %cs
 804aca2:	40                   	inc    %eax
 804aca3:	48                   	dec    %eax
 804aca4:	0e                   	push   %cs
 804aca5:	30 4b 0e             	xor    %cl,0xe(%ebx)
 804aca8:	3c 41                	cmp    $0x41,%al
 804acaa:	0e                   	push   %cs
 804acab:	40                   	inc    %eax
 804acac:	51                   	push   %ecx
 804acad:	0e                   	push   %cs
 804acae:	30 59 0a             	xor    %bl,0xa(%ecx)
 804acb1:	0e                   	push   %cs
 804acb2:	10 41 c3             	adc    %al,-0x3d(%ecx)
 804acb5:	0e                   	push   %cs
 804acb6:	0c 41                	or     $0x41,%al
 804acb8:	c6                   	(bad)  
 804acb9:	0e                   	push   %cs
 804acba:	08 41 c7             	or     %al,-0x39(%ecx)
 804acbd:	0e                   	push   %cs
 804acbe:	04 41                	add    $0x41,%al
 804acc0:	0b 02                	or     (%edx),%eax
 804acc2:	a4                   	movsb  %ds:(%esi),%es:(%edi)
 804acc3:	0e                   	push   %cs
 804acc4:	3c 41                	cmp    $0x41,%al
 804acc6:	0e                   	push   %cs
 804acc7:	40                   	inc    %eax
 804acc8:	48                   	dec    %eax
 804acc9:	0e                   	push   %cs
 804acca:	30 4d 0e             	xor    %cl,0xe(%ebp)
 804accd:	3c 45                	cmp    $0x45,%al
 804accf:	0e                   	push   %cs
 804acd0:	40                   	inc    %eax
 804acd1:	45                   	inc    %ebp
 804acd2:	0e                   	push   %cs
 804acd3:	44                   	inc    %esp
 804acd4:	42                   	inc    %edx
 804acd5:	0e                   	push   %cs
 804acd6:	48                   	dec    %eax
 804acd7:	42                   	inc    %edx
 804acd8:	0e                   	push   %cs
 804acd9:	4c                   	dec    %esp
 804acda:	41                   	inc    %ecx
 804acdb:	0e                   	push   %cs
 804acdc:	50                   	push   %eax
 804acdd:	48                   	dec    %eax
 804acde:	0e                   	push   %cs
 804acdf:	3c 41                	cmp    $0x41,%al
 804ace1:	0e                   	push   %cs
 804ace2:	40                   	inc    %eax
 804ace3:	48                   	dec    %eax
 804ace4:	0e                   	push   %cs
 804ace5:	30 00                	xor    %al,(%eax)
 804ace7:	00 4c 00 00          	add    %cl,0x0(%eax,%eax,1)
 804aceb:	00 e0                	add    %ah,%al
 804aced:	07                   	pop    %es
 804acee:	00 00                	add    %al,(%eax)
 804acf0:	e0 f0                	loopne 804ace2 <__GNU_EH_FRAME_HDR+0x8e2>
 804acf2:	ff                   	(bad)  
 804acf3:	ff                   	(bad)  
 804acf4:	78 00                	js     804acf6 <__GNU_EH_FRAME_HDR+0x8f6>
 804acf6:	00 00                	add    %al,(%eax)
 804acf8:	00 41 0e             	add    %al,0xe(%ecx)
 804acfb:	08 83 02 43 0e 10    	or     %al,0x100e4302(%ebx)
 804ad01:	65 0a 0e             	or     %gs:(%esi),%cl
 804ad04:	08 41 c3             	or     %al,-0x3d(%ecx)
 804ad07:	0e                   	push   %cs
 804ad08:	04 41                	add    $0x41,%al
 804ad0a:	0b 43 0e             	or     0xe(%ebx),%eax
 804ad0d:	14 44                	adc    $0x44,%al
 804ad0f:	0e                   	push   %cs
 804ad10:	18 45 0e             	sbb    %al,0xe(%ebp)
 804ad13:	1c 42                	sbb    $0x42,%al
 804ad15:	0e                   	push   %cs
 804ad16:	20 51 0e             	and    %dl,0xe(%ecx)
 804ad19:	10 4a 0e             	adc    %cl,0xe(%edx)
 804ad1c:	14 41                	adc    $0x41,%al
 804ad1e:	0e                   	push   %cs
 804ad1f:	18 44 0e 1c          	sbb    %al,0x1c(%esi,%ecx,1)
 804ad23:	45                   	inc    %ebp
 804ad24:	0e                   	push   %cs
 804ad25:	20 41 0e             	and    %al,0xe(%ecx)
 804ad28:	24 45                	and    $0x45,%al
 804ad2a:	0e                   	push   %cs
 804ad2b:	28 45 0e             	sub    %al,0xe(%ebp)
 804ad2e:	2c 45                	sub    $0x45,%al
 804ad30:	0e                   	push   %cs
 804ad31:	30 48 0e             	xor    %cl,0xe(%eax)
 804ad34:	10 00                	adc    %al,(%eax)
 804ad36:	00 00                	add    %al,(%eax)
 804ad38:	48                   	dec    %eax
 804ad39:	00 00                	add    %al,(%eax)
 804ad3b:	00 30                	add    %dh,(%eax)
 804ad3d:	08 00                	or     %al,(%eax)
 804ad3f:	00 10                	add    %dl,(%eax)
 804ad41:	f1                   	icebp  
 804ad42:	ff                   	(bad)  
 804ad43:	ff 5d 00             	lcall  *0x0(%ebp)
 804ad46:	00 00                	add    %al,(%eax)
 804ad48:	00 41 0e             	add    %al,0xe(%ecx)
 804ad4b:	08 85 02 41 0e 0c    	or     %al,0xc0e4102(%ebp)
 804ad51:	87 03                	xchg   %eax,(%ebx)
 804ad53:	41                   	inc    %ecx
 804ad54:	0e                   	push   %cs
 804ad55:	10 86 04 41 0e 14    	adc    %al,0x140e4104(%esi)
 804ad5b:	83 05 4e 0e 20 69 0e 	addl   $0xe,0x69200e4e
 804ad62:	24 44                	and    $0x44,%al
 804ad64:	0e                   	push   %cs
 804ad65:	28 44 0e 2c          	sub    %al,0x2c(%esi,%ecx,1)
 804ad69:	41                   	inc    %ecx
 804ad6a:	0e                   	push   %cs
 804ad6b:	30 4d 0e             	xor    %cl,0xe(%ebp)
 804ad6e:	20 47 0e             	and    %al,0xe(%edi)
 804ad71:	14 41                	adc    $0x41,%al
 804ad73:	c3                   	ret    
 804ad74:	0e                   	push   %cs
 804ad75:	10 41 c6             	adc    %al,-0x3a(%ecx)
 804ad78:	0e                   	push   %cs
 804ad79:	0c 41                	or     $0x41,%al
 804ad7b:	c7                   	(bad)  
 804ad7c:	0e                   	push   %cs
 804ad7d:	08 41 c5             	or     %al,-0x3b(%ecx)
 804ad80:	0e                   	push   %cs
 804ad81:	04 00                	add    $0x0,%al
 804ad83:	00 10                	add    %dl,(%eax)
 804ad85:	00 00                	add    %al,(%eax)
 804ad87:	00 7c 08 00          	add    %bh,0x0(%eax,%ecx,1)
 804ad8b:	00 24 f1             	add    %ah,(%ecx,%esi,8)
 804ad8e:	ff                   	(bad)  
 804ad8f:	ff 02                	incl   (%edx)
 804ad91:	00 00                	add    %al,(%eax)
 804ad93:	00 00                	add    %al,(%eax)
 804ad95:	00 00                	add    %al,(%eax)
	...

0804ad98 <__FRAME_END__>:
 804ad98:	00 00                	add    %al,(%eax)
	...

Disassembly of section .init_array:

0804bf08 <__frame_dummy_init_array_entry>:
 804bf08:	b0 89                	mov    $0x89,%al
 804bf0a:	04 08                	add    $0x8,%al

Disassembly of section .fini_array:

0804bf0c <__do_global_dtors_aux_fini_array_entry>:
 804bf0c:	90                   	nop
 804bf0d:	89 04 08             	mov    %eax,(%eax,%ecx,1)

Disassembly of section .jcr:

0804bf10 <__JCR_END__>:
 804bf10:	00 00                	add    %al,(%eax)
	...

Disassembly of section .dynamic:

0804bf14 <_DYNAMIC>:
 804bf14:	01 00                	add    %eax,(%eax)
 804bf16:	00 00                	add    %al,(%eax)
 804bf18:	01 00                	add    %eax,(%eax)
 804bf1a:	00 00                	add    %al,(%eax)
 804bf1c:	0c 00                	or     $0x0,%al
 804bf1e:	00 00                	add    %al,(%eax)
 804bf20:	f4                   	hlt    
 804bf21:	86 04 08             	xchg   %al,(%eax,%ecx,1)
 804bf24:	0d 00 00 00 b4       	or     $0xb4000000,%eax
 804bf29:	9e                   	sahf   
 804bf2a:	04 08                	add    $0x8,%al
 804bf2c:	19 00                	sbb    %eax,(%eax)
 804bf2e:	00 00                	add    %al,(%eax)
 804bf30:	08 bf 04 08 1b 00    	or     %bh,0x1b0804(%edi)
 804bf36:	00 00                	add    %al,(%eax)
 804bf38:	04 00                	add    $0x0,%al
 804bf3a:	00 00                	add    %al,(%eax)
 804bf3c:	1a 00                	sbb    (%eax),%al
 804bf3e:	00 00                	add    %al,(%eax)
 804bf40:	0c bf                	or     $0xbf,%al
 804bf42:	04 08                	add    $0x8,%al
 804bf44:	1c 00                	sbb    $0x0,%al
 804bf46:	00 00                	add    %al,(%eax)
 804bf48:	04 00                	add    $0x0,%al
 804bf4a:	00 00                	add    %al,(%eax)
 804bf4c:	f5                   	cmc    
 804bf4d:	fe                   	(bad)  
 804bf4e:	ff 6f ac             	ljmp   *-0x54(%edi)
 804bf51:	81 04 08 05 00 00 00 	addl   $0x5,(%eax,%ecx,1)
 804bf58:	dc 83 04 08 06 00    	faddl  0x60804(%ebx)
 804bf5e:	00 00                	add    %al,(%eax)
 804bf60:	dc 81 04 08 0a 00    	faddl  0xa0804(%ecx)
 804bf66:	00 00                	add    %al,(%eax)
 804bf68:	77 01                	ja     804bf6b <_DYNAMIC+0x57>
 804bf6a:	00 00                	add    %al,(%eax)
 804bf6c:	0b 00                	or     (%eax),%eax
 804bf6e:	00 00                	add    %al,(%eax)
 804bf70:	10 00                	adc    %al,(%eax)
 804bf72:	00 00                	add    %al,(%eax)
 804bf74:	15 00 00 00 00       	adc    $0x0,%eax
 804bf79:	00 00                	add    %al,(%eax)
 804bf7b:	00 03                	add    %al,(%ebx)
 804bf7d:	00 00                	add    %al,(%eax)
 804bf7f:	00 00                	add    %al,(%eax)
 804bf81:	c0 04 08 02          	rolb   $0x2,(%eax,%ecx,1)
 804bf85:	00 00                	add    %al,(%eax)
 804bf87:	00 d0                	add    %dl,%al
 804bf89:	00 00                	add    %al,(%eax)
 804bf8b:	00 14 00             	add    %dl,(%eax,%eax,1)
 804bf8e:	00 00                	add    %al,(%eax)
 804bf90:	11 00                	adc    %eax,(%eax)
 804bf92:	00 00                	add    %al,(%eax)
 804bf94:	17                   	pop    %ss
 804bf95:	00 00                	add    %al,(%eax)
 804bf97:	00 24 86             	add    %ah,(%esi,%eax,4)
 804bf9a:	04 08                	add    $0x8,%al
 804bf9c:	11 00                	adc    %eax,(%eax)
 804bf9e:	00 00                	add    %al,(%eax)
 804bfa0:	04 86                	add    $0x86,%al
 804bfa2:	04 08                	add    $0x8,%al
 804bfa4:	12 00                	adc    (%eax),%al
 804bfa6:	00 00                	add    %al,(%eax)
 804bfa8:	20 00                	and    %al,(%eax)
 804bfaa:	00 00                	add    %al,(%eax)
 804bfac:	13 00                	adc    (%eax),%eax
 804bfae:	00 00                	add    %al,(%eax)
 804bfb0:	08 00                	or     %al,(%eax)
 804bfb2:	00 00                	add    %al,(%eax)
 804bfb4:	fe                   	(bad)  
 804bfb5:	ff                   	(bad)  
 804bfb6:	ff 6f 94             	ljmp   *-0x6c(%edi)
 804bfb9:	85 04 08             	test   %eax,(%eax,%ecx,1)
 804bfbc:	ff                   	(bad)  
 804bfbd:	ff                   	(bad)  
 804bfbe:	ff 6f 01             	ljmp   *0x1(%edi)
 804bfc1:	00 00                	add    %al,(%eax)
 804bfc3:	00 f0                	add    %dh,%al
 804bfc5:	ff                   	(bad)  
 804bfc6:	ff 6f 54             	ljmp   *0x54(%edi)
 804bfc9:	85 04 08             	test   %eax,(%eax,%ecx,1)
	...

Disassembly of section .got:

0804bffc <.got>:
 804bffc:	00 00                	add    %al,(%eax)
	...

Disassembly of section .got.plt:

0804c000 <_GLOBAL_OFFSET_TABLE_>:
 804c000:	14 bf                	adc    $0xbf,%al
 804c002:	04 08                	add    $0x8,%al
	...
 804c00c:	36 87 04 08          	xchg   %eax,%ss:(%eax,%ecx,1)
 804c010:	46                   	inc    %esi
 804c011:	87 04 08             	xchg   %eax,(%eax,%ecx,1)
 804c014:	56                   	push   %esi
 804c015:	87 04 08             	xchg   %eax,(%eax,%ecx,1)
 804c018:	66 87 04 08          	xchg   %ax,(%eax,%ecx,1)
 804c01c:	76 87                	jbe    804bfa5 <_DYNAMIC+0x91>
 804c01e:	04 08                	add    $0x8,%al
 804c020:	86 87 04 08 96 87    	xchg   %al,-0x7869f7fc(%edi)
 804c026:	04 08                	add    $0x8,%al
 804c028:	a6                   	cmpsb  %es:(%edi),%ds:(%esi)
 804c029:	87 04 08             	xchg   %eax,(%eax,%ecx,1)
 804c02c:	b6 87                	mov    $0x87,%dh
 804c02e:	04 08                	add    $0x8,%al
 804c030:	c6 87 04 08 d6 87 04 	movb   $0x4,-0x7829f7fc(%edi)
 804c037:	08 e6                	or     %ah,%dh
 804c039:	87 04 08             	xchg   %eax,(%eax,%ecx,1)
 804c03c:	f6 87 04 08 06 88 04 	testb  $0x4,-0x77f9f7fc(%edi)
 804c043:	08 16                	or     %dl,(%esi)
 804c045:	88 04 08             	mov    %al,(%eax,%ecx,1)
 804c048:	26 88 04 08          	mov    %al,%es:(%eax,%ecx,1)
 804c04c:	36 88 04 08          	mov    %al,%ss:(%eax,%ecx,1)
 804c050:	46                   	inc    %esi
 804c051:	88 04 08             	mov    %al,(%eax,%ecx,1)
 804c054:	56                   	push   %esi
 804c055:	88 04 08             	mov    %al,(%eax,%ecx,1)
 804c058:	66 88 04 08          	data16 mov %al,(%eax,%ecx,1)
 804c05c:	76 88                	jbe    804bfe6 <_DYNAMIC+0xd2>
 804c05e:	04 08                	add    $0x8,%al
 804c060:	86 88 04 08 96 88    	xchg   %cl,-0x7769f7fc(%eax)
 804c066:	04 08                	add    $0x8,%al
 804c068:	a6                   	cmpsb  %es:(%edi),%ds:(%esi)
 804c069:	88 04 08             	mov    %al,(%eax,%ecx,1)
 804c06c:	b6 88                	mov    $0x88,%dh
 804c06e:	04 08                	add    $0x8,%al
 804c070:	c6                   	(bad)  
 804c071:	88 04 08             	mov    %al,(%eax,%ecx,1)

Disassembly of section .data:

0804c080 <__data_start>:
 804c080:	00 00                	add    %al,(%eax)
	...

0804c084 <__dso_handle>:
 804c084:	00 00                	add    %al,(%eax)
	...

0804c088 <n1>:
 804c088:	24 00                	and    $0x0,%al
 804c08a:	00 00                	add    %al,(%eax)
 804c08c:	94                   	xchg   %eax,%esp
 804c08d:	c0 04 08 a0          	rolb   $0xa0,(%eax,%ecx,1)
 804c091:	c0 04 08 08          	rolb   $0x8,(%eax,%ecx,1)

0804c094 <n21>:
 804c094:	08 00                	or     %al,(%eax)
 804c096:	00 00                	add    %al,(%eax)
 804c098:	c4                   	(bad)  
 804c099:	c0 04 08 ac          	rolb   $0xac,(%eax,%ecx,1)
 804c09d:	c0 04 08 32          	rolb   $0x32,(%eax,%ecx,1)

0804c0a0 <n22>:
 804c0a0:	32 00                	xor    (%eax),%al
 804c0a2:	00 00                	add    %al,(%eax)
 804c0a4:	b8 c0 04 08 d0       	mov    $0xd00804c0,%eax
 804c0a9:	c0 04 08 16          	rolb   $0x16,(%eax,%ecx,1)

0804c0ac <n32>:
 804c0ac:	16                   	push   %ss
 804c0ad:	00 00                	add    %al,(%eax)
 804c0af:	00 18                	add    %bl,(%eax)
 804c0b1:	c1 04 08 00          	roll   $0x0,(%eax,%ecx,1)
 804c0b5:	c1 04 08 2d          	roll   $0x2d,(%eax,%ecx,1)

0804c0b8 <n33>:
 804c0b8:	2d 00 00 00 dc       	sub    $0xdc000000,%eax
 804c0bd:	c0 04 08 24          	rolb   $0x24,(%eax,%ecx,1)
 804c0c1:	c1 04 08 06          	roll   $0x6,(%eax,%ecx,1)

0804c0c4 <n31>:
 804c0c4:	06                   	push   %es
 804c0c5:	00 00                	add    %al,(%eax)
 804c0c7:	00 e8                	add    %ch,%al
 804c0c9:	c0 04 08 0c          	rolb   $0xc,(%eax,%ecx,1)
 804c0cd:	c1 04 08 6b          	roll   $0x6b,(%eax,%ecx,1)

0804c0d0 <n34>:
 804c0d0:	6b 00 00             	imul   $0x0,(%eax),%eax
 804c0d3:	00 f4                	add    %dh,%ah
 804c0d5:	c0 04 08 30          	rolb   $0x30,(%eax,%ecx,1)
 804c0d9:	c1 04 08 28          	roll   $0x28,(%eax,%ecx,1)

0804c0dc <n45>:
 804c0dc:	28 00                	sub    %al,(%eax)
	...

0804c0e8 <n41>:
 804c0e8:	01 00                	add    %eax,(%eax)
	...

0804c0f4 <n47>:
 804c0f4:	63 00                	arpl   %ax,(%eax)
	...

0804c100 <n44>:
 804c100:	23 00                	and    (%eax),%eax
	...

0804c10c <n42>:
 804c10c:	07                   	pop    %es
	...

0804c118 <n43>:
 804c118:	14 00                	adc    $0x0,%al
	...

0804c124 <n46>:
 804c124:	2f                   	das    
	...

0804c130 <n48>:
 804c130:	e9 03 00 00 00       	jmp    804c138 <n48+0x8>
 804c135:	00 00                	add    %al,(%eax)
 804c137:	00 00                	add    %al,(%eax)
 804c139:	00 00                	add    %al,(%eax)
	...

0804c13c <node1>:
 804c13c:	da 02                	fiaddl (%edx)
 804c13e:	00 00                	add    %al,(%eax)
 804c140:	01 00                	add    %eax,(%eax)
 804c142:	00 00                	add    %al,(%eax)
 804c144:	48                   	dec    %eax
 804c145:	c1 04 08 2a          	roll   $0x2a,(%eax,%ecx,1)

0804c148 <node2>:
 804c148:	2a 01                	sub    (%ecx),%al
 804c14a:	00 00                	add    %al,(%eax)
 804c14c:	02 00                	add    (%eax),%al
 804c14e:	00 00                	add    %al,(%eax)
 804c150:	54                   	push   %esp
 804c151:	c1 04 08 8f          	roll   $0x8f,(%eax,%ecx,1)

0804c154 <node3>:
 804c154:	8f 02                	popl   (%edx)
 804c156:	00 00                	add    %al,(%eax)
 804c158:	03 00                	add    (%eax),%eax
 804c15a:	00 00                	add    %al,(%eax)
 804c15c:	60                   	pusha  
 804c15d:	c1 04 08 ef          	roll   $0xef,(%eax,%ecx,1)

0804c160 <node4>:
 804c160:	ef                   	out    %eax,(%dx)
 804c161:	01 00                	add    %eax,(%eax)
 804c163:	00 04 00             	add    %al,(%eax,%eax,1)
 804c166:	00 00                	add    %al,(%eax)
 804c168:	6c                   	insb   (%dx),%es:(%edi)
 804c169:	c1 04 08 52          	roll   $0x52,(%eax,%ecx,1)

0804c16c <node5>:
 804c16c:	52                   	push   %edx
 804c16d:	01 00                	add    %eax,(%eax)
 804c16f:	00 05 00 00 00 78    	add    %al,0x78000000
 804c175:	c1 04 08 92          	roll   $0x92,(%eax,%ecx,1)

0804c178 <node6>:
 804c178:	92                   	xchg   %eax,%edx
 804c179:	02 00                	add    (%eax),%al
 804c17b:	00 06                	add    %al,(%esi)
 804c17d:	00 00                	add    %al,(%eax)
 804c17f:	00 00                	add    %al,(%eax)
 804c181:	00 00                	add    %al,(%eax)
	...

0804c184 <bomb_id>:
 804c184:	26 ec                	es in  (%dx),%al
 804c186:	05 0c 00 00 00       	add    $0xc,%eax
	...

0804c1a0 <host_table>:
 804c1a0:	59                   	pop    %ecx
 804c1a1:	a2 04 08 73 a2       	mov    %al,0xa2730804
 804c1a6:	04 08                	add    $0x8,%al
 804c1a8:	8d a2 04 08 00 00    	lea    0x804(%edx),%esp
	...

Disassembly of section .bss:

0804c3a0 <__bss_start>:
	...

0804c3c0 <stdin@@GLIBC_2.0>:
 804c3c0:	00 00                	add    %al,(%eax)
	...

0804c3c4 <stdout@@GLIBC_2.0>:
 804c3c4:	00 00                	add    %al,(%eax)
	...

0804c3c8 <completed.7176>:
 804c3c8:	00 00                	add    %al,(%eax)
	...

0804c3cc <num_input_strings>:
 804c3cc:	00 00                	add    %al,(%eax)
	...

0804c3d0 <infile>:
	...

0804c3e0 <input_strings>:
	...

0804ca20 <scratch>:
	...

Disassembly of section .comment:

00000000 <.comment>:
   0:	47                   	inc    %edi
   1:	43                   	inc    %ebx
   2:	43                   	inc    %ebx
   3:	3a 20                	cmp    (%eax),%ah
   5:	28 55 62             	sub    %dl,0x62(%ebp)
   8:	75 6e                	jne    78 <_init-0x804867c>
   a:	74 75                	je     81 <_init-0x8048673>
   c:	20 36                	and    %dh,(%esi)
   e:	2e 33 2e             	xor    %cs:(%esi),%ebp
  11:	30 2d 31 32 75 62    	xor    %ch,0x62753231
  17:	75 6e                	jne    87 <_init-0x804866d>
  19:	74 75                	je     90 <_init-0x8048664>
  1b:	32 29                	xor    (%ecx),%ch
  1d:	20 36                	and    %dh,(%esi)
  1f:	2e 33 2e             	xor    %cs:(%esi),%ebp
  22:	30 20                	xor    %ah,(%eax)
  24:	32 30                	xor    (%eax),%dh
  26:	31 37                	xor    %esi,(%edi)
  28:	30 34 30             	xor    %dh,(%eax,%esi,1)
  2b:	36                   	ss
	...

Disassembly of section .debug_aranges:

00000000 <.debug_aranges>:
   0:	1c 00                	sbb    $0x0,%al
   2:	00 00                	add    %al,(%eax)
   4:	02 00                	add    (%eax),%al
   6:	00 00                	add    %al,(%eax)
   8:	00 00                	add    %al,(%eax)
   a:	04 00                	add    $0x0,%al
   c:	00 00                	add    %al,(%eax)
   e:	00 00                	add    %al,(%eax)
  10:	db 89 04 08 67 01    	fisttpl 0x1670804(%ecx)
	...

Disassembly of section .debug_info:

00000000 <.debug_info>:
   0:	75 07                	jne    9 <_init-0x80486eb>
   2:	00 00                	add    %al,(%eax)
   4:	04 00                	add    $0x0,%al
   6:	00 00                	add    %al,(%eax)
   8:	00 00                	add    %al,(%eax)
   a:	04 01                	add    $0x1,%al
   c:	51                   	push   %ecx
   d:	00 00                	add    %al,(%eax)
   f:	00 0c 8b             	add    %cl,(%ebx,%ecx,4)
  12:	02 00                	add    (%eax),%al
  14:	00 fd                	add    %bh,%ch
  16:	01 00                	add    %eax,(%eax)
  18:	00 db                	add    %bl,%bl
  1a:	89 04 08             	mov    %eax,(%eax,%ecx,1)
  1d:	67 01 00             	add    %eax,(%bx,%si)
  20:	00 00                	add    %al,(%eax)
  22:	00 00                	add    %al,(%eax)
  24:	00 02                	add    %al,(%edx)
  26:	23 00                	and    (%eax),%eax
  28:	00 00                	add    %al,(%eax)
  2a:	03 d8                	add    %eax,%ebx
  2c:	30 00                	xor    %al,(%eax)
  2e:	00 00                	add    %al,(%eax)
  30:	03 04 07             	add    (%edi,%eax,1),%eax
  33:	b0 00                	mov    $0x0,%al
  35:	00 00                	add    %al,(%eax)
  37:	03 01                	add    (%ecx),%eax
  39:	08 4f 02             	or     %cl,0x2(%edi)
  3c:	00 00                	add    %al,(%eax)
  3e:	03 02                	add    (%edx),%eax
  40:	07                   	pop    %es
  41:	8c 01                	mov    %es,(%ecx)
  43:	00 00                	add    %al,(%eax)
  45:	03 04 07             	add    (%edi,%eax,1),%eax
  48:	ab                   	stos   %eax,%es:(%edi)
  49:	00 00                	add    %al,(%eax)
  4b:	00 03                	add    %al,(%ebx)
  4d:	01 06                	add    %eax,(%esi)
  4f:	51                   	push   %ecx
  50:	02 00                	add    (%eax),%al
  52:	00 03                	add    %al,(%ebx)
  54:	02 05 5d 02 00 00    	add    0x25d,%al
  5a:	04 04                	add    $0x4,%al
  5c:	05 69 6e 74 00       	add    $0x746e69,%eax
  61:	03 08                	add    (%eax),%ecx
  63:	05 c7 00 00 00       	add    $0xc7,%eax
  68:	03 08                	add    (%eax),%ecx
  6a:	07                   	pop    %es
  6b:	a6                   	cmpsb  %es:(%edi),%ds:(%esi)
  6c:	00 00                	add    %al,(%eax)
  6e:	00 02                	add    %al,(%edx)
  70:	17                   	pop    %ss
  71:	01 00                	add    %eax,(%eax)
  73:	00 04 37             	add    %al,(%edi,%esi,1)
  76:	61                   	popa   
  77:	00 00                	add    %al,(%eax)
  79:	00 02                	add    %al,(%edx)
  7b:	07                   	pop    %es
  7c:	00 00                	add    %al,(%eax)
  7e:	00 04 83             	add    %al,(%ebx,%eax,4)
  81:	85 00                	test   %eax,(%eax)
  83:	00 00                	add    %al,(%eax)
  85:	03 04 05 cc 00 00 00 	add    0xcc(,%eax,1),%eax
  8c:	02 9e 02 00 00 04    	add    0x4000002(%esi),%bl
  92:	84 6f 00             	test   %ch,0x0(%edi)
  95:	00 00                	add    %al,(%eax)
  97:	03 04 07             	add    (%edi,%eax,1),%eax
  9a:	e6 01                	out    %al,$0x1
  9c:	00 00                	add    %al,(%eax)
  9e:	05 04 06 04 a6       	add    $0xa6040604,%eax
  a3:	00 00                	add    %al,(%eax)
  a5:	00 03                	add    %al,(%ebx)
  a7:	01 06                	add    %eax,(%esi)
  a9:	58                   	pop    %eax
  aa:	02 00                	add    (%eax),%al
  ac:	00 07                	add    %al,(%edi)
  ae:	a6                   	cmpsb  %es:(%edi),%ds:(%esi)
  af:	00 00                	add    %al,(%eax)
  b1:	00 02                	add    %al,(%edx)
  b3:	2a 02                	sub    (%edx),%al
  b5:	00 00                	add    %al,(%eax)
  b7:	05 30 bd 00 00       	add    $0xbd30,%eax
  bc:	00 08                	add    %cl,(%eax)
  be:	26 02 00             	add    %es:(%eax),%al
  c1:	00 94 06 f1 3a 02 00 	add    %dl,0x23af1(%esi,%eax,1)
  c8:	00 09                	add    %cl,(%ecx)
  ca:	f8                   	clc    
  cb:	00 00                	add    %al,(%eax)
  cd:	00 06                	add    %al,(%esi)
  cf:	f2 5a                	repnz pop %edx
  d1:	00 00                	add    %al,(%eax)
  d3:	00 00                	add    %al,(%eax)
  d5:	09 0f                	or     %ecx,(%edi)
  d7:	00 00                	add    %al,(%eax)
  d9:	00 06                	add    %al,(%esi)
  db:	f7 a0 00 00 00 04    	mull   0x4000000(%eax)
  e1:	09 eb                	or     %ebp,%ebx
  e3:	00 00                	add    %al,(%eax)
  e5:	00 06                	add    %al,(%esi)
  e7:	f8                   	clc    
  e8:	a0 00 00 00 08       	mov    0x8000000,%al
  ed:	09 a8 02 00 00 06    	or     %ebp,0x6000002(%eax)
  f3:	f9                   	stc    
  f4:	a0 00 00 00 0c       	mov    0xc000000,%al
  f9:	09 4b 03             	or     %ecx,0x3(%ebx)
  fc:	00 00                	add    %al,(%eax)
  fe:	06                   	push   %es
  ff:	fa                   	cli    
 100:	a0 00 00 00 10       	mov    0x10000000,%al
 105:	09 6f 01             	or     %ebp,0x1(%edi)
 108:	00 00                	add    %al,(%eax)
 10a:	06                   	push   %es
 10b:	fb                   	sti    
 10c:	a0 00 00 00 14       	mov    0x14000000,%al
 111:	09 ef                	or     %ebp,%edi
 113:	01 00                	add    %eax,(%eax)
 115:	00 06                	add    %al,(%esi)
 117:	fc                   	cld    
 118:	a0 00 00 00 18       	mov    0x18000000,%al
 11d:	09 44 00 00          	or     %eax,0x0(%eax,%eax,1)
 121:	00 06                	add    %al,(%esi)
 123:	fd                   	std    
 124:	a0 00 00 00 1c       	mov    0x1c000000,%al
 129:	09 ff                	or     %edi,%edi
 12b:	00 00                	add    %al,(%eax)
 12d:	00 06                	add    %al,(%esi)
 12f:	fe                   	(bad)  
 130:	a0 00 00 00 20       	mov    0x20000000,%al
 135:	0a 9f 01 00 00 06    	or     0x6000001(%edi),%bl
 13b:	00 01                	add    %al,(%ecx)
 13d:	a0 00 00 00 24       	mov    0x24000000,%al
 142:	0a 31                	or     (%ecx),%dh
 144:	03 00                	add    (%eax),%eax
 146:	00 06                	add    %al,(%esi)
 148:	01 01                	add    %eax,(%ecx)
 14a:	a0 00 00 00 28       	mov    0x28000000,%al
 14f:	0a b6 02 00 00 06    	or     0x6000002(%esi),%dh
 155:	02 01                	add    (%ecx),%al
 157:	a0 00 00 00 2c       	mov    0x2c000000,%al
 15c:	0a 46 02             	or     0x2(%esi),%al
 15f:	00 00                	add    %al,(%eax)
 161:	06                   	push   %es
 162:	04 01                	add    $0x1,%al
 164:	72 02                	jb     168 <_init-0x804858c>
 166:	00 00                	add    %al,(%eax)
 168:	30 0a                	xor    %cl,(%edx)
 16a:	1c 00                	sbb    $0x0,%al
 16c:	00 00                	add    %al,(%eax)
 16e:	06                   	push   %es
 16f:	06                   	push   %es
 170:	01 78 02             	add    %edi,0x2(%eax)
 173:	00 00                	add    %al,(%eax)
 175:	34 0a                	xor    $0xa,%al
 177:	e3 00                	jecxz  179 <_init-0x804857b>
 179:	00 00                	add    %al,(%eax)
 17b:	06                   	push   %es
 17c:	08 01                	or     %al,(%ecx)
 17e:	5a                   	pop    %edx
 17f:	00 00                	add    %al,(%eax)
 181:	00 38                	add    %bh,(%eax)
 183:	0a b3 01 00 00 06    	or     0x6000001(%ebx),%dh
 189:	0c 01                	or     $0x1,%al
 18b:	5a                   	pop    %edx
 18c:	00 00                	add    %al,(%eax)
 18e:	00 3c 0a             	add    %bh,(%edx,%ecx,1)
 191:	2d 01 00 00 06       	sub    $0x6000001,%eax
 196:	0e                   	push   %cs
 197:	01 7a 00             	add    %edi,0x0(%edx)
 19a:	00 00                	add    %al,(%eax)
 19c:	40                   	inc    %eax
 19d:	0a 0b                	or     (%ebx),%cl
 19f:	01 00                	add    %eax,(%eax)
 1a1:	00 06                	add    %al,(%esi)
 1a3:	12 01                	adc    (%ecx),%al
 1a5:	3e 00 00             	add    %al,%ds:(%eax)
 1a8:	00 44 0a 67          	add    %al,0x67(%edx,%ecx,1)
 1ac:	02 00                	add    (%eax),%al
 1ae:	00 06                	add    %al,(%esi)
 1b0:	13 01                	adc    (%ecx),%eax
 1b2:	4c                   	dec    %esp
 1b3:	00 00                	add    %al,(%eax)
 1b5:	00 46 0a             	add    %al,0xa(%esi)
 1b8:	2a 00                	sub    (%eax),%al
 1ba:	00 00                	add    %al,(%eax)
 1bc:	06                   	push   %es
 1bd:	14 01                	adc    $0x1,%al
 1bf:	7e 02                	jle    1c3 <_init-0x8048531>
 1c1:	00 00                	add    %al,(%eax)
 1c3:	47                   	inc    %edi
 1c4:	0a ad 01 00 00 06    	or     0x6000001(%ebp),%ch
 1ca:	18 01                	sbb    %al,(%ecx)
 1cc:	8e 02                	mov    (%edx),%es
 1ce:	00 00                	add    %al,(%eax)
 1d0:	48                   	dec    %eax
 1d1:	0a 31                	or     (%ecx),%dh
 1d3:	01 00                	add    %eax,(%eax)
 1d5:	00 06                	add    %al,(%esi)
 1d7:	21 01                	and    %eax,(%ecx)
 1d9:	8c 00                	mov    %es,(%eax)
 1db:	00 00                	add    %al,(%eax)
 1dd:	4c                   	dec    %esp
 1de:	0a c9                	or     %cl,%cl
 1e0:	02 00                	add    (%eax),%al
 1e2:	00 06                	add    %al,(%esi)
 1e4:	29 01                	sub    %eax,(%ecx)
 1e6:	9e                   	sahf   
 1e7:	00 00                	add    %al,(%eax)
 1e9:	00 54 0a d0          	add    %dl,-0x30(%edx,%ecx,1)
 1ed:	02 00                	add    (%eax),%al
 1ef:	00 06                	add    %al,(%esi)
 1f1:	2a 01                	sub    (%ecx),%al
 1f3:	9e                   	sahf   
 1f4:	00 00                	add    %al,(%eax)
 1f6:	00 58 0a             	add    %bl,0xa(%eax)
 1f9:	d7                   	xlat   %ds:(%ebx)
 1fa:	02 00                	add    (%eax),%al
 1fc:	00 06                	add    %al,(%esi)
 1fe:	2b 01                	sub    (%ecx),%eax
 200:	9e                   	sahf   
 201:	00 00                	add    %al,(%eax)
 203:	00 5c 0a de          	add    %bl,-0x22(%edx,%ecx,1)
 207:	02 00                	add    (%eax),%al
 209:	00 06                	add    %al,(%esi)
 20b:	2c 01                	sub    $0x1,%al
 20d:	9e                   	sahf   
 20e:	00 00                	add    %al,(%eax)
 210:	00 60 0a             	add    %ah,0xa(%eax)
 213:	e5 02                	in     $0x2,%eax
 215:	00 00                	add    %al,(%eax)
 217:	06                   	push   %es
 218:	2e 01 25 00 00 00 64 	add    %esp,%cs:0x64000000
 21f:	0a bb 01 00 00 06    	or     0x6000001(%ebx),%bh
 225:	2f                   	das    
 226:	01 5a 00             	add    %ebx,0x0(%edx)
 229:	00 00                	add    %al,(%eax)
 22b:	68 0a ec 02 00       	push   $0x2ec0a
 230:	00 06                	add    %al,(%esi)
 232:	31 01                	xor    %eax,(%ecx)
 234:	94                   	xchg   %eax,%esp
 235:	02 00                	add    (%eax),%al
 237:	00 6c 00 0b          	add    %ch,0xb(%eax,%eax,1)
 23b:	1b 02                	sbb    (%edx),%eax
 23d:	00 00                	add    %al,(%eax)
 23f:	06                   	push   %es
 240:	96                   	xchg   %eax,%esi
 241:	08 50 01             	or     %dl,0x1(%eax)
 244:	00 00                	add    %al,(%eax)
 246:	0c 06                	or     $0x6,%al
 248:	9c                   	pushf  
 249:	72 02                	jb     24d <_init-0x80484a7>
 24b:	00 00                	add    %al,(%eax)
 24d:	09 98 02 00 00 06    	or     %ebx,0x6000002(%eax)
 253:	9d                   	popf   
 254:	72 02                	jb     258 <_init-0x804849c>
 256:	00 00                	add    %al,(%eax)
 258:	00 09                	add    %cl,(%ecx)
 25a:	86 01                	xchg   %al,(%ecx)
 25c:	00 00                	add    %al,(%eax)
 25e:	06                   	push   %es
 25f:	9e                   	sahf   
 260:	78 02                	js     264 <_init-0x8048490>
 262:	00 00                	add    %al,(%eax)
 264:	04 09                	add    $0x9,%al
 266:	35 02 00 00 06       	xor    $0x6000002,%eax
 26b:	a2 5a 00 00 00       	mov    %al,0x5a
 270:	08 00                	or     %al,(%eax)
 272:	06                   	push   %es
 273:	04 41                	add    $0x41,%al
 275:	02 00                	add    (%eax),%al
 277:	00 06                	add    %al,(%esi)
 279:	04 bd                	add    $0xbd,%al
 27b:	00 00                	add    %al,(%eax)
 27d:	00 0c a6             	add    %cl,(%esi,%eiz,4)
 280:	00 00                	add    %al,(%eax)
 282:	00 8e 02 00 00 0d    	add    %cl,0xd000002(%esi)
 288:	97                   	xchg   %eax,%edi
 289:	00 00                	add    %al,(%eax)
 28b:	00 00                	add    %al,(%eax)
 28d:	00 06                	add    %al,(%esi)
 28f:	04 3a                	add    $0x3a,%al
 291:	02 00                	add    (%eax),%al
 293:	00 0c a6             	add    %cl,(%esi,%eiz,4)
 296:	00 00                	add    %al,(%eax)
 298:	00 a4 02 00 00 0d 97 	add    %ah,-0x68f30000(%edx,%eax,1)
 29f:	00 00                	add    %al,(%eax)
 2a1:	00 27                	add    %ah,(%edi)
 2a3:	00 0e                	add    %cl,(%esi)
 2a5:	61                   	popa   
 2a6:	01 00                	add    %eax,(%eax)
 2a8:	00 0f                	add    %cl,(%edi)
 2aa:	d7                   	xlat   %ds:(%ebx)
 2ab:	01 00                	add    %eax,(%eax)
 2ad:	00 06                	add    %al,(%esi)
 2af:	3b 01                	cmp    (%ecx),%eax
 2b1:	a4                   	movsb  %ds:(%esi),%es:(%edi)
 2b2:	02 00                	add    (%eax),%al
 2b4:	00 0f                	add    %cl,(%edi)
 2b6:	76 02                	jbe    2ba <_init-0x804843a>
 2b8:	00 00                	add    %al,(%eax)
 2ba:	06                   	push   %es
 2bb:	3c 01                	cmp    $0x1,%al
 2bd:	a4                   	movsb  %ds:(%esi),%es:(%edi)
 2be:	02 00                	add    (%eax),%al
 2c0:	00 0f                	add    %cl,(%edi)
 2c2:	34 00                	xor    $0x0,%al
 2c4:	00 00                	add    %al,(%eax)
 2c6:	06                   	push   %es
 2c7:	3d 01 a4 02 00       	cmp    $0x2a401,%eax
 2cc:	00 06                	add    %al,(%esi)
 2ce:	04 ad                	add    $0xad,%al
 2d0:	00 00                	add    %al,(%eax)
 2d2:	00 07                	add    %al,(%edi)
 2d4:	cd 02                	int    $0x2
 2d6:	00 00                	add    %al,(%eax)
 2d8:	10 cd                	adc    %cl,%ch
 2da:	02 00                	add    (%eax),%al
 2dc:	00 11                	add    %dl,(%ecx)
 2de:	5b                   	pop    %ebx
 2df:	01 00                	add    %eax,(%eax)
 2e1:	00 05 aa 78 02 00    	add    %al,0x278aa
 2e7:	00 11                	add    %dl,(%ecx)
 2e9:	d0 01                	rolb   (%ecx)
 2eb:	00 00                	add    %al,(%eax)
 2ed:	05 ab 78 02 00       	add    $0x278ab,%eax
 2f2:	00 11                	add    %dl,(%ecx)
 2f4:	f5                   	cmc    
 2f5:	02 00                	add    (%eax),%al
 2f7:	00 05 ac 78 02 00    	add    %al,0x278ac
 2fd:	00 11                	add    %dl,(%ecx)
 2ff:	7d 01                	jge    302 <_init-0x80483f2>
 301:	00 00                	add    %al,(%eax)
 303:	07                   	pop    %es
 304:	1a 5a 00             	sbb    0x0(%edx),%bl
 307:	00 00                	add    %al,(%eax)
 309:	0c d3                	or     $0xd3,%al
 30b:	02 00                	add    (%eax),%al
 30d:	00 14 03             	add    %dl,(%ebx,%eax,1)
 310:	00 00                	add    %al,(%eax)
 312:	12 00                	adc    (%eax),%al
 314:	07                   	pop    %es
 315:	09 03                	or     %eax,(%ebx)
 317:	00 00                	add    %al,(%eax)
 319:	11 3a                	adc    %edi,(%edx)
 31b:	02 00                	add    (%eax),%al
 31d:	00 07                	add    %al,(%edi)
 31f:	1b 14 03             	sbb    (%ebx,%eax,1),%edx
 322:	00 00                	add    %al,(%eax)
 324:	13 39                	adc    (%ecx),%edi
 326:	01 00                	add    %eax,(%eax)
 328:	00 01                	add    %al,(%ecx)
 32a:	22 35 03 00 00 05    	and    0x5000003,%dh
 330:	03 d0                	add    %eax,%edx
 332:	c3                   	ret    
 333:	04 08                	add    $0x8,%al
 335:	06                   	push   %es
 336:	04 b2                	add    $0xb2,%al
 338:	00 00                	add    %al,(%eax)
 33a:	00 14 46             	add    %dl,(%esi,%eax,2)
 33d:	03 00                	add    (%eax),%eax
 33f:	00 01                	add    %al,(%ecx)
 341:	24 5a                	and    $0x5a,%al
 343:	00 00                	add    %al,(%eax)
 345:	00 db                	add    %bl,%bl
 347:	89 04 08             	mov    %eax,(%eax,%ecx,1)
 34a:	67 01 00             	add    %eax,(%bx,%si)
 34d:	00 01                	add    %al,(%ecx)
 34f:	9c                   	pushf  
 350:	9e                   	sahf   
 351:	05 00 00 15 41       	add    $0x41150000,%eax
 356:	03 00                	add    (%eax),%eax
 358:	00 01                	add    %al,(%ecx)
 35a:	24 5a                	and    $0x5a,%al
 35c:	00 00                	add    %al,(%eax)
 35e:	00 00                	add    %al,(%eax)
 360:	00 00                	add    %al,(%eax)
 362:	00 15 fc 02 00 00    	add    %dl,0x2fc
 368:	01 24 9e             	add    %esp,(%esi,%ebx,4)
 36b:	05 00 00 42 00       	add    $0x420000,%eax
 370:	00 00                	add    %al,(%eax)
 372:	16                   	push   %ss
 373:	92                   	xchg   %eax,%edx
 374:	02 00                	add    (%eax),%al
 376:	00 01                	add    %al,(%ecx)
 378:	26 a0 00 00 00 62    	mov    %es:0x62000000,%al
 37e:	00 00                	add    %al,(%eax)
 380:	00 17                	add    %dl,(%edi)
 382:	a4                   	movsb  %ds:(%esi),%es:(%edi)
 383:	05 00 00 26 8a       	add    $0x8a260000,%eax
 388:	04 08                	add    $0x8,%al
 38a:	0d 00 00 00 01       	or     $0x1000000,%eax
 38f:	45                   	inc    %ebp
 390:	a7                   	cmpsl  %es:(%edi),%ds:(%esi)
 391:	03 00                	add    (%eax),%eax
 393:	00 18                	add    %bl,(%eax)
 395:	b4 05                	mov    $0x5,%ah
 397:	00 00                	add    %al,(%eax)
 399:	ac                   	lods   %ds:(%esi),%al
 39a:	00 00                	add    %al,(%eax)
 39c:	00 19                	add    %bl,(%ecx)
 39e:	33 8a 04 08 01 06    	xor    0x6010804(%edx),%ecx
 3a4:	00 00                	add    %al,(%eax)
 3a6:	00 17                	add    %dl,(%edi)
 3a8:	a4                   	movsb  %ds:(%esi),%es:(%edi)
 3a9:	05 00 00 33 8a       	add    $0x8a330000,%eax
 3ae:	04 08                	add    $0x8,%al
 3b0:	0c 00                	or     $0x0,%al
 3b2:	00 00                	add    %al,(%eax)
 3b4:	01 46 cd             	add    %eax,-0x33(%esi)
 3b7:	03 00                	add    (%eax),%eax
 3b9:	00 18                	add    %bl,(%eax)
 3bb:	b4 05                	mov    $0x5,%ah
 3bd:	00 00                	add    %al,(%eax)
 3bf:	c4 00                	les    (%eax),%eax
 3c1:	00 00                	add    %al,(%eax)
 3c3:	19 3f                	sbb    %edi,(%edi)
 3c5:	8a 04 08             	mov    (%eax,%ecx,1),%al
 3c8:	01 06                	add    %eax,(%esi)
 3ca:	00 00                	add    %al,(%eax)
 3cc:	00 17                	add    %dl,(%edi)
 3ce:	a4                   	movsb  %ds:(%esi),%es:(%edi)
 3cf:	05 00 00 51 8a       	add    $0x8a510000,%eax
 3d4:	04 08                	add    $0x8,%al
 3d6:	0c 00                	or     $0x0,%al
 3d8:	00 00                	add    %al,(%eax)
 3da:	01 4d f3             	add    %ecx,-0xd(%ebp)
 3dd:	03 00                	add    (%eax),%eax
 3df:	00 18                	add    %bl,(%eax)
 3e1:	b4 05                	mov    $0x5,%ah
 3e3:	00 00                	add    %al,(%eax)
 3e5:	dc 00                	faddl  (%eax)
 3e7:	00 00                	add    %al,(%eax)
 3e9:	19 5d 8a             	sbb    %ebx,-0x76(%ebp)
 3ec:	04 08                	add    $0x8,%al
 3ee:	01 06                	add    %eax,(%esi)
 3f0:	00 00                	add    %al,(%eax)
 3f2:	00 17                	add    %dl,(%edi)
 3f4:	a4                   	movsb  %ds:(%esi),%es:(%edi)
 3f5:	05 00 00 6f 8a       	add    $0x8a6f0000,%eax
 3fa:	04 08                	add    $0x8,%al
 3fc:	0c 00                	or     $0x0,%al
 3fe:	00 00                	add    %al,(%eax)
 400:	01 54 19 04          	add    %edx,0x4(%ecx,%ebx,1)
 404:	00 00                	add    %al,(%eax)
 406:	18 b4 05 00 00 f4 00 	sbb    %dh,0xf40000(%ebp,%eax,1)
 40d:	00 00                	add    %al,(%eax)
 40f:	19 7b 8a             	sbb    %edi,-0x76(%ebx)
 412:	04 08                	add    $0x8,%al
 414:	01 06                	add    %eax,(%esi)
 416:	00 00                	add    %al,(%eax)
 418:	00 17                	add    %dl,(%edi)
 41a:	a4                   	movsb  %ds:(%esi),%es:(%edi)
 41b:	05 00 00 8d 8a       	add    $0x8a8d0000,%eax
 420:	04 08                	add    $0x8,%al
 422:	0c 00                	or     $0x0,%al
 424:	00 00                	add    %al,(%eax)
 426:	01 5b 3f             	add    %ebx,0x3f(%ebx)
 429:	04 00                	add    $0x0,%al
 42b:	00 18                	add    %bl,(%eax)
 42d:	b4 05                	mov    $0x5,%ah
 42f:	00 00                	add    %al,(%eax)
 431:	0c 01                	or     $0x1,%al
 433:	00 00                	add    %al,(%eax)
 435:	19 99 8a 04 08 01    	sbb    %ebx,0x108048a(%ecx)
 43b:	06                   	push   %es
 43c:	00 00                	add    %al,(%eax)
 43e:	00 17                	add    %dl,(%edi)
 440:	a4                   	movsb  %ds:(%esi),%es:(%edi)
 441:	05 00 00 ab 8a       	add    $0x8aab0000,%eax
 446:	04 08                	add    $0x8,%al
 448:	0c 00                	or     $0x0,%al
 44a:	00 00                	add    %al,(%eax)
 44c:	01 61 65             	add    %esp,0x65(%ecx)
 44f:	04 00                	add    $0x0,%al
 451:	00 18                	add    %bl,(%eax)
 453:	b4 05                	mov    $0x5,%ah
 455:	00 00                	add    %al,(%eax)
 457:	24 01                	and    $0x1,%al
 459:	00 00                	add    %al,(%eax)
 45b:	19 b7 8a 04 08 01    	sbb    %esi,0x108048a(%edi)
 461:	06                   	push   %es
 462:	00 00                	add    %al,(%eax)
 464:	00 17                	add    %dl,(%edi)
 466:	a4                   	movsb  %ds:(%esi),%es:(%edi)
 467:	05 00 00 c9 8a       	add    $0x8ac90000,%eax
 46c:	04 08                	add    $0x8,%al
 46e:	0c 00                	or     $0x0,%al
 470:	00 00                	add    %al,(%eax)
 472:	01 67 8b             	add    %esp,-0x75(%edi)
 475:	04 00                	add    $0x0,%al
 477:	00 18                	add    %bl,(%eax)
 479:	b4 05                	mov    $0x5,%ah
 47b:	00 00                	add    %al,(%eax)
 47d:	3c 01                	cmp    $0x1,%al
 47f:	00 00                	add    %al,(%eax)
 481:	19 d5                	sbb    %edx,%ebp
 483:	8a 04 08             	mov    (%eax,%ecx,1),%al
 486:	01 06                	add    %eax,(%esi)
 488:	00 00                	add    %al,(%eax)
 48a:	00 17                	add    %dl,(%edi)
 48c:	a4                   	movsb  %ds:(%esi),%es:(%edi)
 48d:	05 00 00 08 8b       	add    $0x8b080000,%eax
 492:	04 08                	add    $0x8,%al
 494:	11 00                	adc    %eax,(%eax)
 496:	00 00                	add    %al,(%eax)
 498:	01 37                	add    %esi,(%edi)
 49a:	b1 04                	mov    $0x4,%cl
 49c:	00 00                	add    %al,(%eax)
 49e:	18 b4 05 00 00 54 01 	sbb    %dh,0x1540000(%ebp,%eax,1)
 4a5:	00 00                	add    %al,(%eax)
 4a7:	19 19                	sbb    %ebx,(%ecx)
 4a9:	8b 04 08             	mov    (%eax,%ecx,1),%eax
 4ac:	f2 06                	repnz push %es
 4ae:	00 00                	add    %al,(%eax)
 4b0:	00 17                	add    %dl,(%edi)
 4b2:	a4                   	movsb  %ds:(%esi),%es:(%edi)
 4b3:	05 00 00 25 8b       	add    $0x8b250000,%eax
 4b8:	04 08                	add    $0x8,%al
 4ba:	11 00                	adc    %eax,(%eax)
 4bc:	00 00                	add    %al,(%eax)
 4be:	01 3e                	add    %edi,(%esi)
 4c0:	d7                   	xlat   %ds:(%ebx)
 4c1:	04 00                	add    $0x0,%al
 4c3:	00 18                	add    %bl,(%eax)
 4c5:	b4 05                	mov    $0x5,%ah
 4c7:	00 00                	add    %al,(%eax)
 4c9:	6c                   	insb   (%dx),%es:(%edi)
 4ca:	01 00                	add    %eax,(%eax)
 4cc:	00 19                	add    %bl,(%ecx)
 4ce:	36 8b 04 08          	mov    %ss:(%eax,%ecx,1),%eax
 4d2:	f2 06                	repnz push %es
 4d4:	00 00                	add    %al,(%eax)
 4d6:	00 19                	add    %bl,(%ecx)
 4d8:	11 8a 04 08 fd 06    	adc    %ecx,0x6fd0804(%edx)
 4de:	00 00                	add    %al,(%eax)
 4e0:	19 26                	sbb    %esp,(%esi)
 4e2:	8a 04 08             	mov    (%eax,%ecx,1),%al
 4e5:	09 07                	or     %eax,(%edi)
 4e7:	00 00                	add    %al,(%eax)
 4e9:	19 44 8a 04          	sbb    %eax,0x4(%edx,%ecx,4)
 4ed:	08 14 07             	or     %dl,(%edi,%eax,1)
 4f0:	00 00                	add    %al,(%eax)
 4f2:	19 4c 8a 04          	sbb    %ecx,0x4(%edx,%ecx,4)
 4f6:	08 1f                	or     %bl,(%edi)
 4f8:	07                   	pop    %es
 4f9:	00 00                	add    %al,(%eax)
 4fb:	19 51 8a             	sbb    %edx,-0x76(%ecx)
 4fe:	04 08                	add    $0x8,%al
 500:	2a 07                	sub    (%edi),%al
 502:	00 00                	add    %al,(%eax)
 504:	19 62 8a             	sbb    %esp,-0x76(%edx)
 507:	04 08                	add    $0x8,%al
 509:	14 07                	adc    $0x7,%al
 50b:	00 00                	add    %al,(%eax)
 50d:	19 6a 8a             	sbb    %ebp,-0x76(%edx)
 510:	04 08                	add    $0x8,%al
 512:	35 07 00 00 19       	xor    $0x19000007,%eax
 517:	6f                   	outsl  %ds:(%esi),(%dx)
 518:	8a 04 08             	mov    (%eax,%ecx,1),%al
 51b:	2a 07                	sub    (%edi),%al
 51d:	00 00                	add    %al,(%eax)
 51f:	19 80 8a 04 08 14    	sbb    %eax,0x1408048a(%eax)
 525:	07                   	pop    %es
 526:	00 00                	add    %al,(%eax)
 528:	19 88 8a 04 08 40    	sbb    %ecx,0x4008048a(%eax)
 52e:	07                   	pop    %es
 52f:	00 00                	add    %al,(%eax)
 531:	19 8d 8a 04 08 2a    	sbb    %ecx,0x2a08048a(%ebp)
 537:	07                   	pop    %es
 538:	00 00                	add    %al,(%eax)
 53a:	19 9e 8a 04 08 14    	sbb    %ebx,0x1408048a(%esi)
 540:	07                   	pop    %es
 541:	00 00                	add    %al,(%eax)
 543:	19 a6 8a 04 08 4b    	sbb    %esp,0x4b08048a(%esi)
 549:	07                   	pop    %es
 54a:	00 00                	add    %al,(%eax)
 54c:	19 ab 8a 04 08 2a    	sbb    %ebp,0x2a08048a(%ebx)
 552:	07                   	pop    %es
 553:	00 00                	add    %al,(%eax)
 555:	19 bc 8a 04 08 14 07 	sbb    %edi,0x7140804(%edx,%ecx,4)
 55c:	00 00                	add    %al,(%eax)
 55e:	19 c4                	sbb    %eax,%esp
 560:	8a 04 08             	mov    (%eax,%ecx,1),%al
 563:	56                   	push   %esi
 564:	07                   	pop    %es
 565:	00 00                	add    %al,(%eax)
 567:	19 c9                	sbb    %ecx,%ecx
 569:	8a 04 08             	mov    (%eax,%ecx,1),%al
 56c:	2a 07                	sub    (%edi),%al
 56e:	00 00                	add    %al,(%eax)
 570:	19 da                	sbb    %ebx,%edx
 572:	8a 04 08             	mov    (%eax,%ecx,1),%al
 575:	14 07                	adc    $0x7,%al
 577:	00 00                	add    %al,(%eax)
 579:	19 e2                	sbb    %esp,%edx
 57b:	8a 04 08             	mov    (%eax,%ecx,1),%al
 57e:	61                   	popa   
 57f:	07                   	pop    %es
 580:	00 00                	add    %al,(%eax)
 582:	19 e7                	sbb    %esp,%edi
 584:	8a 04 08             	mov    (%eax,%ecx,1),%al
 587:	2a 07                	sub    (%edi),%al
 589:	00 00                	add    %al,(%eax)
 58b:	19 25 8b 04 08 6c    	sbb    %esp,0x6c08048b
 591:	07                   	pop    %es
 592:	00 00                	add    %al,(%eax)
 594:	19 42 8b             	sbb    %eax,-0x75(%edx)
 597:	04 08                	add    $0x8,%al
 599:	6c                   	insb   (%dx),%es:(%edi)
 59a:	07                   	pop    %es
 59b:	00 00                	add    %al,(%eax)
 59d:	00 06                	add    %al,(%esi)
 59f:	04 a0                	add    $0xa0,%al
 5a1:	00 00                	add    %al,(%eax)
 5a3:	00 1a                	add    %bl,(%edx)
 5a5:	00 00                	add    %al,(%eax)
 5a7:	00 00                	add    %al,(%eax)
 5a9:	02 66 5a             	add    0x5a(%esi),%ah
 5ac:	00 00                	add    %al,(%eax)
 5ae:	00 03                	add    %al,(%ebx)
 5b0:	c1 05 00 00 1b c3 02 	roll   $0x2,0xc31b0000
 5b7:	00 00                	add    %al,(%eax)
 5b9:	02 66 d8             	add    -0x28(%esi),%ah
 5bc:	02 00                	add    (%eax),%al
 5be:	00 1c 00             	add    %bl,(%eax,%eax,1)
 5c1:	1d 3e 9e 3c 57       	sbb    $0x573c9e3e,%eax
 5c6:	65 6c                	gs insb (%dx),%es:(%edi)
 5c8:	63 6f 6d             	arpl   %bp,0x6d(%edi)
 5cb:	65 20 74 6f 20       	and    %dh,%gs:0x20(%edi,%ebp,2)
 5d0:	6d                   	insl   (%dx),%es:(%edi)
 5d1:	79 20                	jns    5f3 <_init-0x8048101>
 5d3:	66 69 65 6e 64 69    	imul   $0x6964,0x6e(%ebp),%sp
 5d9:	73 68                	jae    643 <_init-0x80480b1>
 5db:	20 6c 69 74          	and    %ch,0x74(%ecx,%ebp,2)
 5df:	74 6c                	je     64d <_init-0x80480a7>
 5e1:	65 20 62 6f          	and    %ah,%gs:0x6f(%edx)
 5e5:	6d                   	insl   (%dx),%es:(%edi)
 5e6:	62 2e                	bound  %ebp,(%esi)
 5e8:	20 59 6f             	and    %bl,0x6f(%ecx)
 5eb:	75 20                	jne    60d <_init-0x80480e7>
 5ed:	68 61 76 65 20       	push   $0x20657661
 5f2:	36 20 70 68          	and    %dh,%ss:0x68(%eax)
 5f6:	61                   	popa   
 5f7:	73 65                	jae    65e <_init-0x8048096>
 5f9:	73 20                	jae    61b <_init-0x80480d9>
 5fb:	77 69                	ja     666 <_init-0x804808e>
 5fd:	74 68                	je     667 <_init-0x804808d>
 5ff:	0a 00                	or     (%eax),%al
 601:	1e                   	push   %ds
 602:	cb                   	lret   
 603:	01 00                	add    %eax,(%eax)
 605:	00 c1                	add    %al,%cl
 607:	01 00                	add    %eax,(%eax)
 609:	00 0b                	add    %cl,(%ebx)
 60b:	00 cb                	add    %cl,%bl
 60d:	01 00                	add    %eax,(%eax)
 60f:	00 1d 2f 9e 2d 77    	add    %bl,0x772d9e2f
 615:	68 69 63 68 20       	push   $0x20686369
 61a:	74 6f                	je     68b <_init-0x8048069>
 61c:	20 62 6c             	and    %ah,0x6c(%edx)
 61f:	6f                   	outsl  %ds:(%esi),(%dx)
 620:	77 20                	ja     642 <_init-0x80480b2>
 622:	79 6f                	jns    693 <_init-0x8048061>
 624:	75 72                	jne    698 <_init-0x804805c>
 626:	73 65                	jae    68d <_init-0x8048067>
 628:	6c                   	insb   (%dx),%es:(%edi)
 629:	66 20 75 70          	data16 and %dh,0x70(%ebp)
 62d:	2e 20 48 61          	and    %cl,%cs:0x61(%eax)
 631:	76 65                	jbe    698 <_init-0x804805c>
 633:	20 61 20             	and    %ah,0x20(%ecx)
 636:	6e                   	outsb  %ds:(%esi),(%dx)
 637:	69 63 65 20 64 61 79 	imul   $0x79616420,0x65(%ebx),%esp
 63e:	21 0a                	and    %ecx,(%edx)
 640:	00 1d 2c 9e 2a 50    	add    %bl,0x502a9e2c
 646:	68 61 73 65 20       	push   $0x20657361
 64b:	31 20                	xor    %esp,(%eax)
 64d:	64 65 66 75 73       	fs gs data16 jne 6c5 <_init-0x804802f>
 652:	65 64 2e 20 48 6f    	gs fs and %cl,%cs:0x6f(%eax)
 658:	77 20                	ja     67a <_init-0x804807a>
 65a:	61                   	popa   
 65b:	62 6f 75             	bound  %ebp,0x75(%edi)
 65e:	74 20                	je     680 <_init-0x8048074>
 660:	74 68                	je     6ca <_init-0x804802a>
 662:	65 20 6e 65          	and    %ch,%gs:0x65(%esi)
 666:	78 74                	js     6dc <_init-0x8048018>
 668:	20 6f 6e             	and    %ch,0x6e(%edi)
 66b:	65 3f                	gs aas 
 66d:	0a 00                	or     (%eax),%al
 66f:	1d 21 9e 1f 54       	sbb    $0x541f9e21,%eax
 674:	68 61 74 27 73       	push   $0x73277461
 679:	20 6e 75             	and    %ch,0x75(%esi)
 67c:	6d                   	insl   (%dx),%es:(%edi)
 67d:	62 65 72             	bound  %esp,0x72(%ebp)
 680:	20 32                	and    %dh,(%edx)
 682:	2e 20 20             	and    %ah,%cs:(%eax)
 685:	4b                   	dec    %ebx
 686:	65 65 70 20          	gs gs jo 6aa <_init-0x804804a>
 68a:	67 6f                	outsl  %ds:(%si),(%dx)
 68c:	69 6e 67 21 0a 00 1d 	imul   $0x1d000a21,0x67(%esi),%ebp
 693:	12 9e 10 48 61 6c    	adc    0x6c614810(%esi),%bl
 699:	66 77 61             	data16 ja 6fd <_init-0x8047ff7>
 69c:	79 20                	jns    6be <_init-0x8048036>
 69e:	74 68                	je     708 <_init-0x8047fec>
 6a0:	65 72 65             	gs jb  708 <_init-0x8047fec>
 6a3:	21 0a                	and    %ecx,(%edx)
 6a5:	00 1d 27 9e 25 53    	add    %bl,0x53259e27
 6ab:	6f                   	outsl  %ds:(%esi),(%dx)
 6ac:	20 79 6f             	and    %bh,0x6f(%ecx)
 6af:	75 20                	jne    6d1 <_init-0x8048023>
 6b1:	67 6f                	outsl  %ds:(%si),(%dx)
 6b3:	74 20                	je     6d5 <_init-0x804801f>
 6b5:	74 68                	je     71f <_init-0x8047fd5>
 6b7:	61                   	popa   
 6b8:	74 20                	je     6da <_init-0x804801a>
 6ba:	6f                   	outsl  %ds:(%esi),(%dx)
 6bb:	6e                   	outsb  %ds:(%esi),(%dx)
 6bc:	65 2e 20 20          	gs and %ah,%cs:(%eax)
 6c0:	54                   	push   %esp
 6c1:	72 79                	jb     73c <_init-0x8047fb8>
 6c3:	20 74 68 69          	and    %dh,0x69(%eax,%ebp,2)
 6c7:	73 20                	jae    6e9 <_init-0x804800b>
 6c9:	6f                   	outsl  %ds:(%esi),(%dx)
 6ca:	6e                   	outsb  %ds:(%esi),(%dx)
 6cb:	65 2e 0a 00          	gs or  %cs:(%eax),%al
 6cf:	1d 21 9e 1f 47       	sbb    $0x471f9e21,%eax
 6d4:	6f                   	outsl  %ds:(%esi),(%dx)
 6d5:	6f                   	outsl  %ds:(%esi),(%dx)
 6d6:	64 20 77 6f          	and    %dh,%fs:0x6f(%edi)
 6da:	72 6b                	jb     747 <_init-0x8047fad>
 6dc:	21 20                	and    %esp,(%eax)
 6de:	20 4f 6e             	and    %cl,0x6e(%edi)
 6e1:	20 74 6f 20          	and    %dh,0x20(%edi,%ebp,2)
 6e5:	74 68                	je     74f <_init-0x8047fa5>
 6e7:	65 20 6e 65          	and    %ch,%gs:0x65(%esi)
 6eb:	78 74                	js     761 <_init-0x8047f93>
 6ed:	2e 2e 2e 0a 00       	cs cs or %cs:(%eax),%al
 6f2:	1f                   	pop    %ds
 6f3:	20 01                	and    %al,(%ecx)
 6f5:	00 00                	add    %al,(%eax)
 6f7:	20 01                	and    %al,(%ecx)
 6f9:	00 00                	add    %al,(%eax)
 6fb:	02 57 20             	add    0x20(%edi),%dl
 6fe:	2f                   	das    
 6ff:	02 00                	add    (%eax),%al
 701:	00 2f                	add    %ch,(%edi)
 703:	02 00                	add    (%eax),%al
 705:	00 05 12 01 1f 40    	add    %al,0x401f0112
 70b:	01 00                	add    %eax,(%eax)
 70d:	00 40 01             	add    %al,0x1(%eax)
 710:	00 00                	add    %al,(%eax)
 712:	08 09                	or     %cl,(%ecx)
 714:	1f                   	pop    %ds
 715:	bd 00 00 00 bd       	mov    $0xbd000000,%ebp
 71a:	00 00                	add    %al,(%eax)
 71c:	00 08                	add    %cl,(%eax)
 71e:	08 1f                	or     %bl,(%edi)
 720:	01 03                	add    %eax,(%ebx)
 722:	00 00                	add    %al,(%eax)
 724:	01 03                	add    %eax,(%ebx)
 726:	00 00                	add    %al,(%eax)
 728:	09 04 1f             	or     %eax,(%edi,%ebx,1)
 72b:	d5 00                	aad    $0x0
 72d:	00 00                	add    %al,(%eax)
 72f:	d5 00                	aad    $0x0
 731:	00 00                	add    %al,(%eax)
 733:	08 0c 1f             	or     %cl,(%edi,%ebx,1)
 736:	09 03                	or     %eax,(%ebx)
 738:	00 00                	add    %al,(%eax)
 73a:	09 03                	or     %eax,(%ebx)
 73c:	00 00                	add    %al,(%eax)
 73e:	09 05 1f 11 03 00    	or     %eax,0x3111f
 744:	00 11                	add    %dl,(%ecx)
 746:	03 00                	add    (%eax),%eax
 748:	00 09                	add    %cl,(%ecx)
 74a:	06                   	push   %es
 74b:	1f                   	pop    %ds
 74c:	19 03                	sbb    %eax,(%ebx)
 74e:	00 00                	add    %al,(%eax)
 750:	19 03                	sbb    %eax,(%ebx)
 752:	00 00                	add    %al,(%eax)
 754:	09 07                	or     %eax,(%edi)
 756:	1f                   	pop    %ds
 757:	21 03                	and    %eax,(%ebx)
 759:	00 00                	add    %al,(%eax)
 75b:	21 03                	and    %eax,(%ebx)
 75d:	00 00                	add    %al,(%eax)
 75f:	09 08                	or     %ecx,(%eax)
 761:	1f                   	pop    %ds
 762:	29 03                	sub    %eax,(%ebx)
 764:	00 00                	add    %al,(%eax)
 766:	29 03                	sub    %eax,(%ebx)
 768:	00 00                	add    %al,(%eax)
 76a:	09 09                	or     %ecx,(%ecx)
 76c:	20 86 02 00 00 86    	and    %al,-0x79fffffe(%esi)
 772:	02 00                	add    (%eax),%al
 774:	00 0a                	add    %cl,(%edx)
 776:	f8                   	clc    
 777:	01 00                	add    %eax,(%eax)

Disassembly of section .debug_abbrev:

00000000 <.debug_abbrev>:
   0:	01 11                	add    %edx,(%ecx)
   2:	01 25 0e 13 0b 03    	add    %esp,0x30b130e
   8:	0e                   	push   %cs
   9:	1b 0e                	sbb    (%esi),%ecx
   b:	11 01                	adc    %eax,(%ecx)
   d:	12 06                	adc    (%esi),%al
   f:	10 17                	adc    %dl,(%edi)
  11:	00 00                	add    %al,(%eax)
  13:	02 16                	add    (%esi),%dl
  15:	00 03                	add    %al,(%ebx)
  17:	0e                   	push   %cs
  18:	3a 0b                	cmp    (%ebx),%cl
  1a:	3b 0b                	cmp    (%ebx),%ecx
  1c:	49                   	dec    %ecx
  1d:	13 00                	adc    (%eax),%eax
  1f:	00 03                	add    %al,(%ebx)
  21:	24 00                	and    $0x0,%al
  23:	0b 0b                	or     (%ebx),%ecx
  25:	3e 0b 03             	or     %ds:(%ebx),%eax
  28:	0e                   	push   %cs
  29:	00 00                	add    %al,(%eax)
  2b:	04 24                	add    $0x24,%al
  2d:	00 0b                	add    %cl,(%ebx)
  2f:	0b 3e                	or     (%esi),%edi
  31:	0b 03                	or     (%ebx),%eax
  33:	08 00                	or     %al,(%eax)
  35:	00 05 0f 00 0b 0b    	add    %al,0xb0b000f
  3b:	00 00                	add    %al,(%eax)
  3d:	06                   	push   %es
  3e:	0f 00 0b             	str    (%ebx)
  41:	0b 49 13             	or     0x13(%ecx),%ecx
  44:	00 00                	add    %al,(%eax)
  46:	07                   	pop    %es
  47:	26 00 49 13          	add    %cl,%es:0x13(%ecx)
  4b:	00 00                	add    %al,(%eax)
  4d:	08 13                	or     %dl,(%ebx)
  4f:	01 03                	add    %eax,(%ebx)
  51:	0e                   	push   %cs
  52:	0b 0b                	or     (%ebx),%ecx
  54:	3a 0b                	cmp    (%ebx),%cl
  56:	3b 0b                	cmp    (%ebx),%ecx
  58:	01 13                	add    %edx,(%ebx)
  5a:	00 00                	add    %al,(%eax)
  5c:	09 0d 00 03 0e 3a    	or     %ecx,0x3a0e0300
  62:	0b 3b                	or     (%ebx),%edi
  64:	0b 49 13             	or     0x13(%ecx),%ecx
  67:	38 0b                	cmp    %cl,(%ebx)
  69:	00 00                	add    %al,(%eax)
  6b:	0a 0d 00 03 0e 3a    	or     0x3a0e0300,%cl
  71:	0b 3b                	or     (%ebx),%edi
  73:	05 49 13 38 0b       	add    $0xb381349,%eax
  78:	00 00                	add    %al,(%eax)
  7a:	0b 16                	or     (%esi),%edx
  7c:	00 03                	add    %al,(%ebx)
  7e:	0e                   	push   %cs
  7f:	3a 0b                	cmp    (%ebx),%cl
  81:	3b 0b                	cmp    (%ebx),%ecx
  83:	00 00                	add    %al,(%eax)
  85:	0c 01                	or     $0x1,%al
  87:	01 49 13             	add    %ecx,0x13(%ecx)
  8a:	01 13                	add    %edx,(%ebx)
  8c:	00 00                	add    %al,(%eax)
  8e:	0d 21 00 49 13       	or     $0x13490021,%eax
  93:	2f                   	das    
  94:	0b 00                	or     (%eax),%eax
  96:	00 0e                	add    %cl,(%esi)
  98:	13 00                	adc    (%eax),%eax
  9a:	03 0e                	add    (%esi),%ecx
  9c:	3c 19                	cmp    $0x19,%al
  9e:	00 00                	add    %al,(%eax)
  a0:	0f 34                	sysenter 
  a2:	00 03                	add    %al,(%ebx)
  a4:	0e                   	push   %cs
  a5:	3a 0b                	cmp    (%ebx),%cl
  a7:	3b 05 49 13 3f 19    	cmp    0x193f1349,%eax
  ad:	3c 19                	cmp    $0x19,%al
  af:	00 00                	add    %al,(%eax)
  b1:	10 37                	adc    %dh,(%edi)
  b3:	00 49 13             	add    %cl,0x13(%ecx)
  b6:	00 00                	add    %al,(%eax)
  b8:	11 34 00             	adc    %esi,(%eax,%eax,1)
  bb:	03 0e                	add    (%esi),%ecx
  bd:	3a 0b                	cmp    (%ebx),%cl
  bf:	3b 0b                	cmp    (%ebx),%ecx
  c1:	49                   	dec    %ecx
  c2:	13 3f                	adc    (%edi),%edi
  c4:	19 3c 19             	sbb    %edi,(%ecx,%ebx,1)
  c7:	00 00                	add    %al,(%eax)
  c9:	12 21                	adc    (%ecx),%ah
  cb:	00 00                	add    %al,(%eax)
  cd:	00 13                	add    %dl,(%ebx)
  cf:	34 00                	xor    $0x0,%al
  d1:	03 0e                	add    (%esi),%ecx
  d3:	3a 0b                	cmp    (%ebx),%cl
  d5:	3b 0b                	cmp    (%ebx),%ecx
  d7:	49                   	dec    %ecx
  d8:	13 3f                	adc    (%edi),%edi
  da:	19 02                	sbb    %eax,(%edx)
  dc:	18 00                	sbb    %al,(%eax)
  de:	00 14 2e             	add    %dl,(%esi,%ebp,1)
  e1:	01 3f                	add    %edi,(%edi)
  e3:	19 03                	sbb    %eax,(%ebx)
  e5:	0e                   	push   %cs
  e6:	3a 0b                	cmp    (%ebx),%cl
  e8:	3b 0b                	cmp    (%ebx),%ecx
  ea:	27                   	daa    
  eb:	19 49 13             	sbb    %ecx,0x13(%ecx)
  ee:	11 01                	adc    %eax,(%ecx)
  f0:	12 06                	adc    (%esi),%al
  f2:	40                   	inc    %eax
  f3:	18 97 42 19 01 13    	sbb    %dl,0x13011942(%edi)
  f9:	00 00                	add    %al,(%eax)
  fb:	15 05 00 03 0e       	adc    $0xe030005,%eax
 100:	3a 0b                	cmp    (%ebx),%cl
 102:	3b 0b                	cmp    (%ebx),%ecx
 104:	49                   	dec    %ecx
 105:	13 02                	adc    (%edx),%eax
 107:	17                   	pop    %ss
 108:	00 00                	add    %al,(%eax)
 10a:	16                   	push   %ss
 10b:	34 00                	xor    $0x0,%al
 10d:	03 0e                	add    (%esi),%ecx
 10f:	3a 0b                	cmp    (%ebx),%cl
 111:	3b 0b                	cmp    (%ebx),%ecx
 113:	49                   	dec    %ecx
 114:	13 02                	adc    (%edx),%eax
 116:	17                   	pop    %ss
 117:	00 00                	add    %al,(%eax)
 119:	17                   	pop    %ss
 11a:	1d 01 31 13 11       	sbb    $0x11133101,%eax
 11f:	01 12                	add    %edx,(%edx)
 121:	06                   	push   %es
 122:	58                   	pop    %eax
 123:	0b 59 0b             	or     0xb(%ecx),%ebx
 126:	01 13                	add    %edx,(%ebx)
 128:	00 00                	add    %al,(%eax)
 12a:	18 05 00 31 13 02    	sbb    %al,0x2133100
 130:	17                   	pop    %ss
 131:	00 00                	add    %al,(%eax)
 133:	19 89 82 01 00 11    	sbb    %ecx,0x11000182(%ecx)
 139:	01 31                	add    %esi,(%ecx)
 13b:	13 00                	adc    (%eax),%eax
 13d:	00 1a                	add    %bl,(%edx)
 13f:	2e 01 3f             	add    %edi,%cs:(%edi)
 142:	19 03                	sbb    %eax,(%ebx)
 144:	0e                   	push   %cs
 145:	3a 0b                	cmp    (%ebx),%cl
 147:	3b 0b                	cmp    (%ebx),%ecx
 149:	27                   	daa    
 14a:	19 49 13             	sbb    %ecx,0x13(%ecx)
 14d:	20 0b                	and    %cl,(%ebx)
 14f:	34 19                	xor    $0x19,%al
 151:	01 13                	add    %edx,(%ebx)
 153:	00 00                	add    %al,(%eax)
 155:	1b 05 00 03 0e 3a    	sbb    0x3a0e0300,%eax
 15b:	0b 3b                	or     (%ebx),%edi
 15d:	0b 49 13             	or     0x13(%ecx),%ecx
 160:	00 00                	add    %al,(%eax)
 162:	1c 18                	sbb    $0x18,%al
 164:	00 00                	add    %al,(%eax)
 166:	00 1d 36 00 02 18    	add    %bl,0x18020036
 16c:	00 00                	add    %al,(%eax)
 16e:	1e                   	push   %ds
 16f:	2e 00 3f             	add    %bh,%cs:(%edi)
 172:	19 3c 19             	sbb    %edi,(%ecx,%ebx,1)
 175:	6e                   	outsb  %ds:(%esi),(%dx)
 176:	0e                   	push   %cs
 177:	03 0e                	add    (%esi),%ecx
 179:	3a 0b                	cmp    (%ebx),%cl
 17b:	3b 0b                	cmp    (%ebx),%ecx
 17d:	6e                   	outsb  %ds:(%esi),(%dx)
 17e:	0e                   	push   %cs
 17f:	00 00                	add    %al,(%eax)
 181:	1f                   	pop    %ds
 182:	2e 00 3f             	add    %bh,%cs:(%edi)
 185:	19 3c 19             	sbb    %edi,(%ecx,%ebx,1)
 188:	6e                   	outsb  %ds:(%esi),(%dx)
 189:	0e                   	push   %cs
 18a:	03 0e                	add    (%esi),%ecx
 18c:	3a 0b                	cmp    (%ebx),%cl
 18e:	3b 0b                	cmp    (%ebx),%ecx
 190:	00 00                	add    %al,(%eax)
 192:	20 2e                	and    %ch,(%esi)
 194:	00 3f                	add    %bh,(%edi)
 196:	19 3c 19             	sbb    %edi,(%ecx,%ebx,1)
 199:	6e                   	outsb  %ds:(%esi),(%dx)
 19a:	0e                   	push   %cs
 19b:	03 0e                	add    (%esi),%ecx
 19d:	3a 0b                	cmp    (%ebx),%cl
 19f:	3b                   	.byte 0x3b
 1a0:	05                   	.byte 0x5
 1a1:	00 00                	add    %al,(%eax)
	...

Disassembly of section .debug_line:

00000000 <.debug_line>:
   0:	67 01 00             	add    %eax,(%bx,%si)
   3:	00 02                	add    %al,(%edx)
   5:	00 ee                	add    %ch,%dh
   7:	00 00                	add    %al,(%eax)
   9:	00 01                	add    %al,(%ecx)
   b:	01 fb                	add    %edi,%ebx
   d:	0e                   	push   %cs
   e:	0d 00 01 01 01       	or     $0x1010100,%eax
  13:	01 00                	add    %eax,(%eax)
  15:	00 00                	add    %al,(%eax)
  17:	01 00                	add    %eax,(%eax)
  19:	00 01                	add    %al,(%ecx)
  1b:	2f                   	das    
  1c:	75 73                	jne    91 <_init-0x8048663>
  1e:	72 2f                	jb     4f <_init-0x80486a5>
  20:	69 6e 63 6c 75 64 65 	imul   $0x6564756c,0x63(%esi),%ebp
  27:	2f                   	das    
  28:	69 33 38 36 2d 6c    	imul   $0x6c2d3638,(%ebx),%esi
  2e:	69 6e 75 78 2d 67 6e 	imul   $0x6e672d78,0x75(%esi),%ebp
  35:	75 2f                	jne    66 <_init-0x804868e>
  37:	62 69 74             	bound  %ebp,0x74(%ecx)
  3a:	73 00                	jae    3c <_init-0x80486b8>
  3c:	2f                   	das    
  3d:	75 73                	jne    b2 <_init-0x8048642>
  3f:	72 2f                	jb     70 <_init-0x8048684>
  41:	6c                   	insb   (%dx),%es:(%edi)
  42:	69 62 2f 67 63 63 2f 	imul   $0x2f636367,0x2f(%edx),%esp
  49:	69 36 38 36 2d 6c    	imul   $0x6c2d3638,(%esi),%esi
  4f:	69 6e 75 78 2d 67 6e 	imul   $0x6e672d78,0x75(%esi),%ebp
  56:	75 2f                	jne    87 <_init-0x804866d>
  58:	36 2f                	ss das 
  5a:	69 6e 63 6c 75 64 65 	imul   $0x6564756c,0x63(%esi),%ebp
  61:	00 2f                	add    %ch,(%edi)
  63:	75 73                	jne    d8 <_init-0x804861c>
  65:	72 2f                	jb     96 <_init-0x804865e>
  67:	69 6e 63 6c 75 64 65 	imul   $0x6564756c,0x63(%esi),%ebp
  6e:	00 00                	add    %al,(%eax)
  70:	62 6f 6d             	bound  %ebp,0x6d(%edi)
  73:	62 2e                	bound  %ebp,(%esi)
  75:	63 00                	arpl   %ax,(%eax)
  77:	00 00                	add    %al,(%eax)
  79:	00 73 74             	add    %dh,0x74(%ebx)
  7c:	64 69 6f 32 2e 68 00 	imul   $0x100682e,%fs:0x32(%edi),%ebp
  83:	01 
  84:	00 00                	add    %al,(%eax)
  86:	73 74                	jae    fc <_init-0x80485f8>
  88:	64 64 65 66 2e 68 00 	fs fs gs cs pushw $0x200
  8f:	02 
  90:	00 00                	add    %al,(%eax)
  92:	74 79                	je     10d <_init-0x80485e7>
  94:	70 65                	jo     fb <_init-0x80485f9>
  96:	73 2e                	jae    c6 <_init-0x804862e>
  98:	68 00 01 00 00       	push   $0x100
  9d:	73 74                	jae    113 <_init-0x80485e1>
  9f:	64 69 6f 2e 68 00 03 	imul   $0x30068,%fs:0x2e(%edi),%ebp
  a6:	00 
  a7:	00 6c 69 62          	add    %ch,0x62(%ecx,%ebp,2)
  ab:	69 6f 2e 68 00 03 00 	imul   $0x30068,0x2e(%edi),%ebp
  b2:	00 73 79             	add    %dh,0x79(%ebx)
  b5:	73 5f                	jae    116 <_init-0x80485de>
  b7:	65 72 72             	gs jb  12c <_init-0x80485c8>
  ba:	6c                   	insb   (%dx),%es:(%edi)
  bb:	69 73 74 2e 68 00 01 	imul   $0x100682e,0x74(%ebx),%esi
  c2:	00 00                	add    %al,(%eax)
  c4:	73 75                	jae    13b <_init-0x80485b9>
  c6:	70 70                	jo     138 <_init-0x80485bc>
  c8:	6f                   	outsl  %ds:(%esi),(%dx)
  c9:	72 74                	jb     13f <_init-0x80485b5>
  cb:	2e 68 00 00 00 00    	cs push $0x0
  d1:	70 68                	jo     13b <_init-0x80485b9>
  d3:	61                   	popa   
  d4:	73 65                	jae    13b <_init-0x80485b9>
  d6:	73 2e                	jae    106 <_init-0x80485ee>
  d8:	68 00 00 00 00       	push   $0x0
  dd:	73 74                	jae    153 <_init-0x80485a1>
  df:	64 6c                	fs insb (%dx),%es:(%edi)
  e1:	69 62 2e 68 00 03 00 	imul   $0x30068,0x2e(%edx),%esp
  e8:	00 3c 62             	add    %bh,(%edx,%eiz,2)
  eb:	75 69                	jne    156 <_init-0x804859e>
  ed:	6c                   	insb   (%dx),%es:(%edi)
  ee:	74 2d                	je     11d <_init-0x80485d7>
  f0:	69 6e 3e 00 00 00 00 	imul   $0x0,0x3e(%esi),%ebp
  f7:	00 00                	add    %al,(%eax)
  f9:	05 02 db 89 04       	add    $0x489db02,%eax
  fe:	08 03                	or     %al,(%ebx)
 100:	24 01                	and    $0x1,%al
 102:	08 44 98 91          	or     %al,-0x6f(%eax,%ebx,4)
 106:	03 0d 08 e4 04 02    	add    0x204e408,%ecx
 10c:	03 25 58 04 01 03    	add    0x3010458,%esp
 112:	61                   	popa   
 113:	08 82 59 83 04 02    	or     %al,0x2048359(%edx)
 119:	03 1d 58 04 01 03    	add    0x3010458,%ebx
 11f:	69 ba 59 83 04 02 03 	imul   $0x4581503,0x2048359(%edx),%edi
 126:	15 58 04 
 129:	01 03                	add    %eax,(%ebx)
 12b:	70 ba                	jo     e7 <_init-0x804860d>
 12d:	59                   	pop    %ecx
 12e:	83 04 02 03          	addl   $0x3,(%edx,%eax,1)
 132:	0e                   	push   %cs
 133:	58                   	pop    %eax
 134:	04 01                	add    $0x1,%al
 136:	03 76 ba             	add    -0x46(%esi),%esi
 139:	59                   	pop    %ecx
 13a:	83 04 02 60          	addl   $0x60,(%edx,%eax,1)
 13e:	04 01                	add    $0x1,%al
 140:	b6 59                	mov    $0x59,%dh
 142:	83 04 02 5a          	addl   $0x5a,(%edx,%eax,1)
 146:	04 01                	add    $0x1,%al
 148:	bd 59 83 88 03       	mov    $0x3888359,%ebp
 14d:	bb 7f e4 04 02       	mov    $0x204e47f,%ebx
 152:	03 3a                	add    (%edx),%edi
 154:	e4 04                	in     $0x4,%al
 156:	01 03                	add    %eax,(%ebx)
 158:	50                   	push   %eax
 159:	08 12                	or     %dl,(%edx)
 15b:	04 02                	add    $0x2,%al
 15d:	03 30                	add    (%eax),%esi
 15f:	ba 04 01 03 57       	mov    $0x57030104,%edx
 164:	08 12                	or     %dl,(%edx)
 166:	02 0c 00             	add    (%eax,%eax,1),%cl
 169:	01 01                	add    %eax,(%ecx)

Disassembly of section .debug_str:

00000000 <.debug_str>:
   0:	70 72                	jo     74 <_init-0x8048680>
   2:	69 6e 74 66 00 5f 5f 	imul   $0x5f5f0066,0x74(%esi),%ebp
   9:	6f                   	outsl  %ds:(%esi),(%dx)
   a:	66 66 5f             	data16 pop %di
   d:	74 00                	je     f <_init-0x80486e5>
   f:	5f                   	pop    %edi
  10:	49                   	dec    %ecx
  11:	4f                   	dec    %edi
  12:	5f                   	pop    %edi
  13:	72 65                	jb     7a <_init-0x804867a>
  15:	61                   	popa   
  16:	64 5f                	fs pop %edi
  18:	70 74                	jo     8e <_init-0x8048666>
  1a:	72 00                	jb     1c <_init-0x80486d8>
  1c:	5f                   	pop    %edi
  1d:	63 68 61             	arpl   %bp,0x61(%eax)
  20:	69 6e 00 73 69 7a 65 	imul   $0x657a6973,0x0(%esi),%ebp
  27:	5f                   	pop    %edi
  28:	74 00                	je     2a <_init-0x80486ca>
  2a:	5f                   	pop    %edi
  2b:	73 68                	jae    95 <_init-0x804865f>
  2d:	6f                   	outsl  %ds:(%esi),(%dx)
  2e:	72 74                	jb     a4 <_init-0x8048650>
  30:	62 75 66             	bound  %esi,0x66(%ebp)
  33:	00 5f 49             	add    %bl,0x49(%edi)
  36:	4f                   	dec    %edi
  37:	5f                   	pop    %edi
  38:	32 5f 31             	xor    0x31(%edi),%bl
  3b:	5f                   	pop    %edi
  3c:	73 74                	jae    b2 <_init-0x8048642>
  3e:	64 65 72 72          	fs gs jb b4 <_init-0x8048640>
  42:	5f                   	pop    %edi
  43:	00 5f 49             	add    %bl,0x49(%edi)
  46:	4f                   	dec    %edi
  47:	5f                   	pop    %edi
  48:	62 75 66             	bound  %esi,0x66(%ebp)
  4b:	5f                   	pop    %edi
  4c:	62 61 73             	bound  %esp,0x73(%ecx)
  4f:	65 00 47 4e          	add    %al,%gs:0x4e(%edi)
  53:	55                   	push   %ebp
  54:	20 43 31             	and    %al,0x31(%ebx)
  57:	31 20                	xor    %esp,(%eax)
  59:	36 2e 33 2e          	ss xor %cs:(%esi),%ebp
  5d:	30 20                	xor    %ah,(%eax)
  5f:	32 30                	xor    (%eax),%dh
  61:	31 37                	xor    %esi,(%edi)
  63:	30 34 30             	xor    %dh,(%eax,%esi,1)
  66:	36 20 2d 6d 74 75 6e 	and    %ch,%ss:0x6e75746d
  6d:	65 3d 67 65 6e 65    	gs cmp $0x656e6567,%eax
  73:	72 69                	jb     de <_init-0x8048616>
  75:	63 20                	arpl   %sp,(%eax)
  77:	2d 6d 61 72 63       	sub    $0x6372616d,%eax
  7c:	68 3d 69 36 38       	push   $0x3836693d
  81:	36 20 2d 67 67 64 62 	and    %ch,%ss:0x62646767
  88:	20 2d 4f 31 20 2d    	and    %ch,0x2d20314f
  8e:	66 73 74             	data16 jae 105 <_init-0x80485ef>
  91:	61                   	popa   
  92:	63 6b 2d             	arpl   %bp,0x2d(%ebx)
  95:	70 72                	jo     109 <_init-0x80485eb>
  97:	6f                   	outsl  %ds:(%esi),(%dx)
  98:	74 65                	je     ff <_init-0x80485f5>
  9a:	63 74 6f 72          	arpl   %si,0x72(%edi,%ebp,2)
  9e:	2d 73 74 72 6f       	sub    $0x6f727473,%eax
  a3:	6e                   	outsb  %ds:(%esi),(%dx)
  a4:	67 00 6c 6f          	add    %ch,0x6f(%si)
  a8:	6e                   	outsb  %ds:(%esi),(%dx)
  a9:	67 20 6c 6f          	and    %ch,0x6f(%si)
  ad:	6e                   	outsb  %ds:(%esi),(%dx)
  ae:	67 20 75 6e          	and    %dh,0x6e(%di)
  b2:	73 69                	jae    11d <_init-0x80485d7>
  b4:	67 6e                	outsb  %ds:(%si),(%dx)
  b6:	65 64 20 69 6e       	gs and %ch,%fs:0x6e(%ecx)
  bb:	74 00                	je     bd <_init-0x8048637>
  bd:	72 65                	jb     124 <_init-0x80485d0>
  bf:	61                   	popa   
  c0:	64 5f                	fs pop %edi
  c2:	6c                   	insb   (%dx),%es:(%edi)
  c3:	69 6e 65 00 6c 6f 6e 	imul   $0x6e6f6c00,0x65(%esi),%ebp
  ca:	67 20 6c 6f          	and    %ch,0x6f(%si)
  ce:	6e                   	outsb  %ds:(%esi),(%dx)
  cf:	67 20 69 6e          	and    %ch,0x6e(%bx,%di)
  d3:	74 00                	je     d5 <_init-0x804861f>
  d5:	70 68                	jo     13f <_init-0x80485b5>
  d7:	61                   	popa   
  d8:	73 65                	jae    13f <_init-0x80485b5>
  da:	5f                   	pop    %edi
  db:	64 65 66 75 73       	fs gs data16 jne 153 <_init-0x80485a1>
  e0:	65 64 00 5f 66       	gs add %bl,%fs:0x66(%edi)
  e5:	69 6c 65 6e 6f 00 5f 	imul   $0x495f006f,0x6e(%ebp,%eiz,2),%ebp
  ec:	49 
  ed:	4f                   	dec    %edi
  ee:	5f                   	pop    %edi
  ef:	72 65                	jb     156 <_init-0x804859e>
  f1:	61                   	popa   
  f2:	64 5f                	fs pop %edi
  f4:	65 6e                	outsb  %gs:(%esi),(%dx)
  f6:	64 00 5f 66          	add    %bl,%fs:0x66(%edi)
  fa:	6c                   	insb   (%dx),%es:(%edi)
  fb:	61                   	popa   
  fc:	67 73 00             	addr16 jae ff <_init-0x80485f5>
  ff:	5f                   	pop    %edi
 100:	49                   	dec    %ecx
 101:	4f                   	dec    %edi
 102:	5f                   	pop    %edi
 103:	62 75 66             	bound  %esi,0x66(%ebp)
 106:	5f                   	pop    %edi
 107:	65 6e                	outsb  %gs:(%esi),(%dx)
 109:	64 00 5f 63          	add    %bl,%fs:0x63(%edi)
 10d:	75 72                	jne    181 <_init-0x8048573>
 10f:	5f                   	pop    %edi
 110:	63 6f 6c             	arpl   %bp,0x6c(%edi)
 113:	75 6d                	jne    182 <_init-0x8048572>
 115:	6e                   	outsb  %ds:(%esi),(%dx)
 116:	00 5f 5f             	add    %bl,0x5f(%edi)
 119:	71 75                	jno    190 <_init-0x8048564>
 11b:	61                   	popa   
 11c:	64 5f                	fs pop %edi
 11e:	74 00                	je     120 <_init-0x80485d4>
 120:	5f                   	pop    %edi
 121:	5f                   	pop    %edi
 122:	70 72                	jo     196 <_init-0x804855e>
 124:	69 6e 74 66 5f 63 68 	imul   $0x68635f66,0x74(%esi),%ebp
 12b:	6b 00 5f             	imul   $0x5f,(%eax),%eax
 12e:	6f                   	outsl  %ds:(%esi),(%dx)
 12f:	6c                   	insb   (%dx),%es:(%edi)
 130:	64 5f                	fs pop %edi
 132:	6f                   	outsl  %ds:(%esi),(%dx)
 133:	66 66 73 65          	data16 data16 jae 19c <_init-0x8048558>
 137:	74 00                	je     139 <_init-0x80485bb>
 139:	69 6e 66 69 6c 65 00 	imul   $0x656c69,0x66(%esi),%ebp
 140:	69 6e 69 74 69 61 6c 	imul   $0x6c616974,0x69(%esi),%ebp
 147:	69 7a 65 5f 62 6f 6d 	imul   $0x6d6f625f,0x65(%edx),%edi
 14e:	62 00                	bound  %eax,(%eax)
 150:	5f                   	pop    %edi
 151:	49                   	dec    %ecx
 152:	4f                   	dec    %edi
 153:	5f                   	pop    %edi
 154:	6d                   	insl   (%dx),%es:(%edi)
 155:	61                   	popa   
 156:	72 6b                	jb     1c3 <_init-0x8048531>
 158:	65 72 00             	gs jb  15b <_init-0x8048599>
 15b:	73 74                	jae    1d1 <_init-0x8048523>
 15d:	64 69 6e 00 5f 49 4f 	imul   $0x5f4f495f,%fs:0x0(%esi),%ebp
 164:	5f 
 165:	46                   	inc    %esi
 166:	49                   	dec    %ecx
 167:	4c                   	dec    %esp
 168:	45                   	inc    %ebp
 169:	5f                   	pop    %edi
 16a:	70 6c                	jo     1d8 <_init-0x804851c>
 16c:	75 73                	jne    1e1 <_init-0x8048513>
 16e:	00 5f 49             	add    %bl,0x49(%edi)
 171:	4f                   	dec    %edi
 172:	5f                   	pop    %edi
 173:	77 72                	ja     1e7 <_init-0x804850d>
 175:	69 74 65 5f 70 74 72 	imul   $0x727470,0x5f(%ebp,%eiz,2),%esi
 17c:	00 
 17d:	73 79                	jae    1f8 <_init-0x80484fc>
 17f:	73 5f                	jae    1e0 <_init-0x8048514>
 181:	6e                   	outsb  %ds:(%esi),(%dx)
 182:	65 72 72             	gs jb  1f7 <_init-0x80484fd>
 185:	00 5f 73             	add    %bl,0x73(%edi)
 188:	62 75 66             	bound  %esi,0x66(%ebp)
 18b:	00 73 68             	add    %dh,0x68(%ebx)
 18e:	6f                   	outsl  %ds:(%esi),(%dx)
 18f:	72 74                	jb     205 <_init-0x80484ef>
 191:	20 75 6e             	and    %dh,0x6e(%ebp)
 194:	73 69                	jae    1ff <_init-0x80484f5>
 196:	67 6e                	outsb  %ds:(%si),(%dx)
 198:	65 64 20 69 6e       	gs and %ch,%fs:0x6e(%ecx)
 19d:	74 00                	je     19f <_init-0x8048555>
 19f:	5f                   	pop    %edi
 1a0:	49                   	dec    %ecx
 1a1:	4f                   	dec    %edi
 1a2:	5f                   	pop    %edi
 1a3:	73 61                	jae    206 <_init-0x80484ee>
 1a5:	76 65                	jbe    20c <_init-0x80484e8>
 1a7:	5f                   	pop    %edi
 1a8:	62 61 73             	bound  %esp,0x73(%ecx)
 1ab:	65 00 5f 6c          	add    %bl,%gs:0x6c(%edi)
 1af:	6f                   	outsl  %ds:(%esi),(%dx)
 1b0:	63 6b 00             	arpl   %bp,0x0(%ebx)
 1b3:	5f                   	pop    %edi
 1b4:	66 6c                	data16 insb (%dx),%es:(%edi)
 1b6:	61                   	popa   
 1b7:	67 73 32             	addr16 jae 1ec <_init-0x8048508>
 1ba:	00 5f 6d             	add    %bl,0x6d(%edi)
 1bd:	6f                   	outsl  %ds:(%esi),(%dx)
 1be:	64 65 00 5f 5f       	fs add %bl,%gs:0x5f(%edi)
 1c3:	62 75 69             	bound  %esi,0x69(%ebp)
 1c6:	6c                   	insb   (%dx),%es:(%edi)
 1c7:	74 69                	je     232 <_init-0x80484c2>
 1c9:	6e                   	outsb  %ds:(%esi),(%dx)
 1ca:	5f                   	pop    %edi
 1cb:	70 75                	jo     242 <_init-0x80484b2>
 1cd:	74 73                	je     242 <_init-0x80484b2>
 1cf:	00 73 74             	add    %dh,0x74(%ebx)
 1d2:	64 6f                	outsl  %fs:(%esi),(%dx)
 1d4:	75 74                	jne    24a <_init-0x80484aa>
 1d6:	00 5f 49             	add    %bl,0x49(%edi)
 1d9:	4f                   	dec    %edi
 1da:	5f                   	pop    %edi
 1db:	32 5f 31             	xor    0x31(%edi),%bl
 1de:	5f                   	pop    %edi
 1df:	73 74                	jae    255 <_init-0x804849f>
 1e1:	64 69 6e 5f 00 73 69 	imul   $0x7a697300,%fs:0x5f(%esi),%ebp
 1e8:	7a 
 1e9:	65 74 79             	gs je  265 <_init-0x804848f>
 1ec:	70 65                	jo     253 <_init-0x80484a1>
 1ee:	00 5f 49             	add    %bl,0x49(%edi)
 1f1:	4f                   	dec    %edi
 1f2:	5f                   	pop    %edi
 1f3:	77 72                	ja     267 <_init-0x804848d>
 1f5:	69 74 65 5f 65 6e 64 	imul   $0x646e65,0x5f(%ebp,%eiz,2),%esi
 1fc:	00 
 1fd:	2f                   	das    
 1fe:	68 6f 6d 65 2f       	push   $0x2f656d6f
 203:	77 61                	ja     266 <_init-0x804848e>
 205:	6e                   	outsb  %ds:(%esi),(%dx)
 206:	67 64 71 2f          	addr16 fs jno 239 <_init-0x80484bb>
 20a:	69 63 73 32 30 31 39 	imul   $0x39313032,0x73(%ebx),%esp
 211:	2f                   	das    
 212:	6c                   	insb   (%dx),%es:(%edi)
 213:	61                   	popa   
 214:	62 32                	bound  %esi,(%edx)
 216:	2f                   	das    
 217:	73 72                	jae    28b <_init-0x8048469>
 219:	63 00                	arpl   %ax,(%eax)
 21b:	5f                   	pop    %edi
 21c:	49                   	dec    %ecx
 21d:	4f                   	dec    %edi
 21e:	5f                   	pop    %edi
 21f:	6c                   	insb   (%dx),%es:(%edi)
 220:	6f                   	outsl  %ds:(%esi),(%dx)
 221:	63 6b 5f             	arpl   %bp,0x5f(%ebx)
 224:	74 00                	je     226 <_init-0x80484ce>
 226:	5f                   	pop    %edi
 227:	49                   	dec    %ecx
 228:	4f                   	dec    %edi
 229:	5f                   	pop    %edi
 22a:	46                   	inc    %esi
 22b:	49                   	dec    %ecx
 22c:	4c                   	dec    %esp
 22d:	45                   	inc    %ebp
 22e:	00 66 6f             	add    %ah,0x6f(%esi)
 231:	70 65                	jo     298 <_init-0x804845c>
 233:	6e                   	outsb  %ds:(%esi),(%dx)
 234:	00 5f 70             	add    %bl,0x70(%edi)
 237:	6f                   	outsl  %ds:(%esi),(%dx)
 238:	73 00                	jae    23a <_init-0x80484ba>
 23a:	73 79                	jae    2b5 <_init-0x804843f>
 23c:	73 5f                	jae    29d <_init-0x8048457>
 23e:	65 72 72             	gs jb  2b3 <_init-0x8048441>
 241:	6c                   	insb   (%dx),%es:(%edi)
 242:	69 73 74 00 5f 6d 61 	imul   $0x616d5f00,0x74(%ebx),%esi
 249:	72 6b                	jb     2b6 <_init-0x804843e>
 24b:	65 72 73             	gs jb  2c1 <_init-0x8048433>
 24e:	00 75 6e             	add    %dh,0x6e(%ebp)
 251:	73 69                	jae    2bc <_init-0x8048438>
 253:	67 6e                	outsb  %ds:(%si),(%dx)
 255:	65 64 20 63 68       	gs and %ah,%fs:0x68(%ebx)
 25a:	61                   	popa   
 25b:	72 00                	jb     25d <_init-0x8048497>
 25d:	73 68                	jae    2c7 <_init-0x804842d>
 25f:	6f                   	outsl  %ds:(%esi),(%dx)
 260:	72 74                	jb     2d6 <_init-0x804841e>
 262:	20 69 6e             	and    %ch,0x6e(%ecx)
 265:	74 00                	je     267 <_init-0x804848d>
 267:	5f                   	pop    %edi
 268:	76 74                	jbe    2de <_init-0x8048416>
 26a:	61                   	popa   
 26b:	62 6c 65 5f          	bound  %ebp,0x5f(%ebp,%eiz,2)
 26f:	6f                   	outsl  %ds:(%esi),(%dx)
 270:	66 66 73 65          	data16 data16 jae 2d9 <_init-0x804841b>
 274:	74 00                	je     276 <_init-0x804847e>
 276:	5f                   	pop    %edi
 277:	49                   	dec    %ecx
 278:	4f                   	dec    %edi
 279:	5f                   	pop    %edi
 27a:	32 5f 31             	xor    0x31(%edi),%bl
 27d:	5f                   	pop    %edi
 27e:	73 74                	jae    2f4 <_init-0x8048400>
 280:	64 6f                	outsl  %fs:(%esi),(%dx)
 282:	75 74                	jne    2f8 <_init-0x80483fc>
 284:	5f                   	pop    %edi
 285:	00 65 78             	add    %ah,0x78(%ebp)
 288:	69 74 00 62 6f 6d 62 	imul   $0x2e626d6f,0x62(%eax,%eax,1),%esi
 28f:	2e 
 290:	63 00                	arpl   %ax,(%eax)
 292:	69 6e 70 75 74 00 5f 	imul   $0x5f007475,0x70(%esi),%ebp
 299:	6e                   	outsb  %ds:(%esi),(%dx)
 29a:	65 78 74             	gs js  311 <_init-0x80483e3>
 29d:	00 5f 5f             	add    %bl,0x5f(%edi)
 2a0:	6f                   	outsl  %ds:(%esi),(%dx)
 2a1:	66 66 36 34 5f       	data16 data16 ss xor $0x5f,%al
 2a6:	74 00                	je     2a8 <_init-0x804844c>
 2a8:	5f                   	pop    %edi
 2a9:	49                   	dec    %ecx
 2aa:	4f                   	dec    %edi
 2ab:	5f                   	pop    %edi
 2ac:	72 65                	jb     313 <_init-0x80483e1>
 2ae:	61                   	popa   
 2af:	64 5f                	fs pop %edi
 2b1:	62 61 73             	bound  %esp,0x73(%ecx)
 2b4:	65 00 5f 49          	add    %bl,%gs:0x49(%edi)
 2b8:	4f                   	dec    %edi
 2b9:	5f                   	pop    %edi
 2ba:	73 61                	jae    31d <_init-0x80483d7>
 2bc:	76 65                	jbe    323 <_init-0x80483d1>
 2be:	5f                   	pop    %edi
 2bf:	65 6e                	outsb  %gs:(%esi),(%dx)
 2c1:	64 00 5f 5f          	add    %bl,%fs:0x5f(%edi)
 2c5:	66 6d                	insw   (%dx),%es:(%edi)
 2c7:	74 00                	je     2c9 <_init-0x804842b>
 2c9:	5f                   	pop    %edi
 2ca:	5f                   	pop    %edi
 2cb:	70 61                	jo     32e <_init-0x80483c6>
 2cd:	64 31 00             	xor    %eax,%fs:(%eax)
 2d0:	5f                   	pop    %edi
 2d1:	5f                   	pop    %edi
 2d2:	70 61                	jo     335 <_init-0x80483bf>
 2d4:	64 32 00             	xor    %fs:(%eax),%al
 2d7:	5f                   	pop    %edi
 2d8:	5f                   	pop    %edi
 2d9:	70 61                	jo     33c <_init-0x80483b8>
 2db:	64 33 00             	xor    %fs:(%eax),%eax
 2de:	5f                   	pop    %edi
 2df:	5f                   	pop    %edi
 2e0:	70 61                	jo     343 <_init-0x80483b1>
 2e2:	64 34 00             	fs xor $0x0,%al
 2e5:	5f                   	pop    %edi
 2e6:	5f                   	pop    %edi
 2e7:	70 61                	jo     34a <_init-0x80483aa>
 2e9:	64 35 00 5f 75 6e    	fs xor $0x6e755f00,%eax
 2ef:	75 73                	jne    364 <_init-0x8048390>
 2f1:	65 64 32 00          	gs xor %fs:(%eax),%al
 2f5:	73 74                	jae    36b <_init-0x8048389>
 2f7:	64 65 72 72          	fs gs jb 36d <_init-0x8048387>
 2fb:	00 61 72             	add    %ah,0x72(%ecx)
 2fe:	67 76 00             	addr16 jbe 301 <_init-0x80483f3>
 301:	70 68                	jo     36b <_init-0x8048389>
 303:	61                   	popa   
 304:	73 65                	jae    36b <_init-0x8048389>
 306:	5f                   	pop    %edi
 307:	31 00                	xor    %eax,(%eax)
 309:	70 68                	jo     373 <_init-0x8048381>
 30b:	61                   	popa   
 30c:	73 65                	jae    373 <_init-0x8048381>
 30e:	5f                   	pop    %edi
 30f:	32 00                	xor    (%eax),%al
 311:	70 68                	jo     37b <_init-0x8048379>
 313:	61                   	popa   
 314:	73 65                	jae    37b <_init-0x8048379>
 316:	5f                   	pop    %edi
 317:	33 00                	xor    (%eax),%eax
 319:	70 68                	jo     383 <_init-0x8048371>
 31b:	61                   	popa   
 31c:	73 65                	jae    383 <_init-0x8048371>
 31e:	5f                   	pop    %edi
 31f:	34 00                	xor    $0x0,%al
 321:	70 68                	jo     38b <_init-0x8048369>
 323:	61                   	popa   
 324:	73 65                	jae    38b <_init-0x8048369>
 326:	5f                   	pop    %edi
 327:	35 00 70 68 61       	xor    $0x61687000,%eax
 32c:	73 65                	jae    393 <_init-0x8048361>
 32e:	5f                   	pop    %edi
 32f:	36 00 5f 49          	add    %bl,%ss:0x49(%edi)
 333:	4f                   	dec    %edi
 334:	5f                   	pop    %edi
 335:	62 61 63             	bound  %esp,0x63(%ecx)
 338:	6b 75 70 5f          	imul   $0x5f,0x70(%ebp),%esi
 33c:	62 61 73             	bound  %esp,0x73(%ecx)
 33f:	65 00 61 72          	add    %ah,%gs:0x72(%ecx)
 343:	67 63 00             	arpl   %ax,(%bx,%si)
 346:	6d                   	insl   (%dx),%es:(%edi)
 347:	61                   	popa   
 348:	69 6e 00 5f 49 4f 5f 	imul   $0x5f4f495f,0x0(%esi),%ebp
 34f:	77 72                	ja     3c3 <_init-0x8048331>
 351:	69 74 65 5f 62 61 73 	imul   $0x65736162,0x5f(%ebp,%eiz,2),%esi
 358:	65 
	...

Disassembly of section .debug_loc:

00000000 <.debug_loc>:
   0:	00 00                	add    %al,(%eax)
   2:	00 00                	add    %al,(%eax)
   4:	53                   	push   %ebx
   5:	00 00                	add    %al,(%eax)
   7:	00 02                	add    %al,(%edx)
   9:	00 91 00 1e 01 00    	add    %dl,0x11e00(%ecx)
   f:	00 23                	add    %ah,(%ebx)
  11:	01 00                	add    %eax,(%eax)
  13:	00 01                	add    %al,(%ecx)
  15:	00 50 23             	add    %dl,0x23(%eax)
  18:	01 00                	add    %eax,(%eax)
  1a:	00 4a 01             	add    %cl,0x1(%edx)
  1d:	00 00                	add    %al,(%eax)
  1f:	02 00                	add    (%eax),%al
  21:	91                   	xchg   %eax,%ecx
  22:	00 4a 01             	add    %cl,0x1(%edx)
  25:	00 00                	add    %al,(%eax)
  27:	5a                   	pop    %edx
  28:	01 00                	add    %eax,(%eax)
  2a:	00 01                	add    %al,(%ecx)
  2c:	00 50 5a             	add    %dl,0x5a(%eax)
  2f:	01 00                	add    %eax,(%eax)
  31:	00 67 01             	add    %ah,0x1(%edi)
  34:	00 00                	add    %al,(%eax)
  36:	02 00                	add    (%eax),%al
  38:	91                   	xchg   %eax,%ecx
	...
  45:	00 53 00             	add    %dl,0x0(%ebx)
  48:	00 00                	add    %al,(%eax)
  4a:	02 00                	add    (%eax),%al
  4c:	91                   	xchg   %eax,%ecx
  4d:	04 1e                	add    $0x1e,%al
  4f:	01 00                	add    %eax,(%eax)
  51:	00 67 01             	add    %ah,0x1(%edi)
  54:	00 00                	add    %al,(%eax)
  56:	02 00                	add    (%eax),%al
  58:	91                   	xchg   %eax,%ecx
  59:	04 00                	add    $0x0,%al
  5b:	00 00                	add    %al,(%eax)
  5d:	00 00                	add    %al,(%eax)
  5f:	00 00                	add    %al,(%eax)
  61:	00 69 00             	add    %ch,0x0(%ecx)
  64:	00 00                	add    %al,(%eax)
  66:	70 00                	jo     68 <_init-0x804868c>
  68:	00 00                	add    %al,(%eax)
  6a:	01 00                	add    %eax,(%eax)
  6c:	50                   	push   %eax
  6d:	87 00                	xchg   %eax,(%eax)
  6f:	00 00                	add    %al,(%eax)
  71:	8e 00                	mov    (%eax),%es
  73:	00 00                	add    %al,(%eax)
  75:	01 00                	add    %eax,(%eax)
  77:	50                   	push   %eax
  78:	a5                   	movsl  %ds:(%esi),%es:(%edi)
  79:	00 00                	add    %al,(%eax)
  7b:	00 ac 00 00 00 01 00 	add    %ch,0x10000(%eax,%eax,1)
  82:	50                   	push   %eax
  83:	c3                   	ret    
  84:	00 00                	add    %al,(%eax)
  86:	00 ca                	add    %cl,%dl
  88:	00 00                	add    %al,(%eax)
  8a:	00 01                	add    %al,(%ecx)
  8c:	00 50 e1             	add    %dl,-0x1f(%eax)
  8f:	00 00                	add    %al,(%eax)
  91:	00 e8                	add    %ch,%al
  93:	00 00                	add    %al,(%eax)
  95:	00 01                	add    %al,(%ecx)
  97:	00 50 ff             	add    %dl,-0x1(%eax)
  9a:	00 00                	add    %al,(%eax)
  9c:	00 06                	add    %al,(%esi)
  9e:	01 00                	add    %eax,(%eax)
  a0:	00 01                	add    %al,(%ecx)
  a2:	00 50 00             	add    %dl,0x0(%eax)
  a5:	00 00                	add    %al,(%eax)
  a7:	00 00                	add    %al,(%eax)
  a9:	00 00                	add    %al,(%eax)
  ab:	00 4b 00             	add    %cl,0x0(%ebx)
  ae:	00 00                	add    %al,(%eax)
  b0:	58                   	pop    %eax
  b1:	00 00                	add    %al,(%eax)
  b3:	00 06                	add    %al,(%esi)
  b5:	00 f2                	add    %dh,%dl
  b7:	c1 05 00 00 00 00 00 	roll   $0x0,0x0
  be:	00 00                	add    %al,(%eax)
  c0:	00 00                	add    %al,(%eax)
  c2:	00 00                	add    %al,(%eax)
  c4:	58                   	pop    %eax
  c5:	00 00                	add    %al,(%eax)
  c7:	00 64 00 00          	add    %ah,0x0(%eax,%eax,1)
  cb:	00 06                	add    %al,(%esi)
  cd:	00 f2                	add    %dh,%dl
  cf:	10 06                	adc    %al,(%esi)
	...
  d9:	00 00                	add    %al,(%eax)
  db:	00 76 00             	add    %dh,0x0(%esi)
  de:	00 00                	add    %al,(%eax)
  e0:	82                   	(bad)  
  e1:	00 00                	add    %al,(%eax)
  e3:	00 06                	add    %al,(%esi)
  e5:	00 f2                	add    %dh,%dl
  e7:	41                   	inc    %ecx
  e8:	06                   	push   %es
	...
  f1:	00 00                	add    %al,(%eax)
  f3:	00 94 00 00 00 a0 00 	add    %dl,0xa00000(%eax,%eax,1)
  fa:	00 00                	add    %al,(%eax)
  fc:	06                   	push   %es
  fd:	00 f2                	add    %dh,%dl
  ff:	6f                   	outsl  %ds:(%esi),(%dx)
 100:	06                   	push   %es
	...
 109:	00 00                	add    %al,(%eax)
 10b:	00 b2 00 00 00 be    	add    %dh,-0x42000000(%edx)
 111:	00 00                	add    %al,(%eax)
 113:	00 06                	add    %al,(%esi)
 115:	00 f2                	add    %dh,%dl
 117:	92                   	xchg   %eax,%edx
 118:	06                   	push   %es
	...
 121:	00 00                	add    %al,(%eax)
 123:	00 d0                	add    %dl,%al
 125:	00 00                	add    %al,(%eax)
 127:	00 dc                	add    %bl,%ah
 129:	00 00                	add    %al,(%eax)
 12b:	00 06                	add    %al,(%esi)
 12d:	00 f2                	add    %dh,%dl
 12f:	a6                   	cmpsb  %es:(%edi),%ds:(%esi)
 130:	06                   	push   %es
	...
 139:	00 00                	add    %al,(%eax)
 13b:	00 ee                	add    %ch,%dh
 13d:	00 00                	add    %al,(%eax)
 13f:	00 fa                	add    %bh,%dl
 141:	00 00                	add    %al,(%eax)
 143:	00 06                	add    %al,(%esi)
 145:	00 f2                	add    %dh,%dl
 147:	cf                   	iret   
 148:	06                   	push   %es
	...
 151:	00 00                	add    %al,(%eax)
 153:	00 2d 01 00 00 3e    	add    %ch,0x3e000001
 159:	01 00                	add    %eax,(%eax)
 15b:	00 06                	add    %al,(%esi)
 15d:	00 03                	add    %al,(%ebx)
 15f:	ea 9e 04 08 9f 00 00 	ljmp   $0x0,$0x9f08049e
 166:	00 00                	add    %al,(%eax)
 168:	00 00                	add    %al,(%eax)
 16a:	00 00                	add    %al,(%eax)
 16c:	4a                   	dec    %edx
 16d:	01 00                	add    %eax,(%eax)
 16f:	00 5b 01             	add    %bl,0x1(%ebx)
 172:	00 00                	add    %al,(%eax)
 174:	06                   	push   %es
 175:	00 03                	add    %al,(%ebx)
 177:	07                   	pop    %es
 178:	9f                   	lahf   
 179:	04 08                	add    $0x8,%al
 17b:	9f                   	lahf   
	...
